	.file "sampleCode/BinaryTree.java"
	.def ___main; .scl 2; .type 32; .endef
	.intel_syntax noprefix
	.section .rdata, "dr"
LC0:
	.ascii "%d\0"
	.text
	.globl _main
	.def _main; .scl 2; .type 32; .endef
_main:
	.cfi_startproc
	push ebp
	.cfi_def_cfa_offset 8
	.cfi_offset 5, -8
	mov ebp, esp
	.cfi_def_cfa_register 5
	and esp, -16
	sub esp, 16
	call ___main
	pushad
	mov EBX, ESP
	mov EBP, EBX
	sub ESP, 8
	mov EBX, 0
	mov DWORD PTR [ESP], EBX
	call _malloc
	mov DWORD PTR [EBP - 4], EAX
	push DWORD PTR [EBP - 4]
	call _temp494
	pop DWORD PTR [EBP - 4]
	mov EBX, EAX
	mov DWORD PTR [EBP - 8], EBX
	mov EAX, DWORD PTR [EBP - 8]
	mov DWORD PTR [ESP+4], EAX
	mov DWORD PTR [ESP], OFFSET FLAT:LC0
	call _printf
	mov EBX, DWORD PTR [ESP-32]
	mov EAX, EBX
	add ESP, 8
	popad
	leave
	.cfi_restore 5
	.cfi_def_cfa 4, 4
	ret
	.cfi_endproc

_temp494:
	.cfi_startproc
	push ebp
	.cfi_def_cfa_offset 8
	.cfi_offset 5, -8
	mov ebp, esp
	.cfi_def_cfa_register 5
	pushad
	mov EBX, ESP
	mov EBP, EBX
	sub ESP, 232
	mov EBX, 24
	mov DWORD PTR [ESP], EBX
	call _malloc
	mov DWORD PTR [EBP - 4], EAX
	mov EBX, DWORD PTR [EBP - 4]
	mov DWORD PTR [EBP - 8], EBX
	mov EBX, DWORD PTR [EBP - 8]
	mov DWORD PTR [EBP - 12], EBX
	mov EBX, 16
	mov DWORD PTR [EBP - 16], EBX
	push DWORD PTR [EBP - 16]
	push DWORD PTR [EBP - 12]
	call _temp495
	pop DWORD PTR [EBP - 12]
	pop DWORD PTR [EBP - 16]
	mov EBX, EAX
	mov DWORD PTR [EBP - 20], EBX
	mov EBX, DWORD PTR [EBP - 20]
	mov DWORD PTR [EBP - 24], EBX
	mov EBX, DWORD PTR [EBP - 8]
	mov DWORD PTR [EBP - 28], EBX
	push DWORD PTR [EBP - 28]
	call _temp513
	pop DWORD PTR [EBP - 28]
	mov EBX, EAX
	mov DWORD PTR [EBP - 32], EBX
	mov EBX, DWORD PTR [EBP - 32]
	mov DWORD PTR [EBP - 24], EBX
	mov EBX, 100000000
	mov DWORD PTR [EBP - 36], EBX
	mov EAX, DWORD PTR [EBP - 36]
	mov DWORD PTR [ESP+4], EAX
	mov DWORD PTR [ESP], OFFSET FLAT:LC0
	call _printf
	mov EBX, DWORD PTR [EBP - 8]
	mov DWORD PTR [EBP - 40], EBX
	mov EBX, 8
	mov DWORD PTR [EBP - 44], EBX
	push DWORD PTR [EBP - 44]
	push DWORD PTR [EBP - 40]
	call _temp507
	pop DWORD PTR [EBP - 40]
	pop DWORD PTR [EBP - 44]
	mov EBX, EAX
	mov DWORD PTR [EBP - 48], EBX
	mov EBX, DWORD PTR [EBP - 48]
	mov DWORD PTR [EBP - 24], EBX
	mov EBX, DWORD PTR [EBP - 8]
	mov DWORD PTR [EBP - 52], EBX
	push DWORD PTR [EBP - 52]
	call _temp513
	pop DWORD PTR [EBP - 52]
	mov EBX, EAX
	mov DWORD PTR [EBP - 56], EBX
	mov EBX, DWORD PTR [EBP - 56]
	mov DWORD PTR [EBP - 24], EBX
	mov EBX, DWORD PTR [EBP - 8]
	mov DWORD PTR [EBP - 60], EBX
	mov EBX, 24
	mov DWORD PTR [EBP - 64], EBX
	push DWORD PTR [EBP - 64]
	push DWORD PTR [EBP - 60]
	call _temp507
	pop DWORD PTR [EBP - 60]
	pop DWORD PTR [EBP - 64]
	mov EBX, EAX
	mov DWORD PTR [EBP - 68], EBX
	mov EBX, DWORD PTR [EBP - 68]
	mov DWORD PTR [EBP - 24], EBX
	mov EBX, DWORD PTR [EBP - 8]
	mov DWORD PTR [EBP - 72], EBX
	mov EBX, 4
	mov DWORD PTR [EBP - 76], EBX
	push DWORD PTR [EBP - 76]
	push DWORD PTR [EBP - 72]
	call _temp507
	pop DWORD PTR [EBP - 72]
	pop DWORD PTR [EBP - 76]
	mov EBX, EAX
	mov DWORD PTR [EBP - 80], EBX
	mov EBX, DWORD PTR [EBP - 80]
	mov DWORD PTR [EBP - 24], EBX
	mov EBX, DWORD PTR [EBP - 8]
	mov DWORD PTR [EBP - 84], EBX
	mov EBX, 12
	mov DWORD PTR [EBP - 88], EBX
	push DWORD PTR [EBP - 88]
	push DWORD PTR [EBP - 84]
	call _temp507
	pop DWORD PTR [EBP - 84]
	pop DWORD PTR [EBP - 88]
	mov EBX, EAX
	mov DWORD PTR [EBP - 92], EBX
	mov EBX, DWORD PTR [EBP - 92]
	mov DWORD PTR [EBP - 24], EBX
	mov EBX, DWORD PTR [EBP - 8]
	mov DWORD PTR [EBP - 96], EBX
	mov EBX, 20
	mov DWORD PTR [EBP - 100], EBX
	push DWORD PTR [EBP - 100]
	push DWORD PTR [EBP - 96]
	call _temp507
	pop DWORD PTR [EBP - 96]
	pop DWORD PTR [EBP - 100]
	mov EBX, EAX
	mov DWORD PTR [EBP - 104], EBX
	mov EBX, DWORD PTR [EBP - 104]
	mov DWORD PTR [EBP - 24], EBX
	mov EBX, DWORD PTR [EBP - 8]
	mov DWORD PTR [EBP - 108], EBX
	mov EBX, 28
	mov DWORD PTR [EBP - 112], EBX
	push DWORD PTR [EBP - 112]
	push DWORD PTR [EBP - 108]
	call _temp507
	pop DWORD PTR [EBP - 108]
	pop DWORD PTR [EBP - 112]
	mov EBX, EAX
	mov DWORD PTR [EBP - 116], EBX
	mov EBX, DWORD PTR [EBP - 116]
	mov DWORD PTR [EBP - 24], EBX
	mov EBX, DWORD PTR [EBP - 8]
	mov DWORD PTR [EBP - 120], EBX
	mov EBX, 14
	mov DWORD PTR [EBP - 124], EBX
	push DWORD PTR [EBP - 124]
	push DWORD PTR [EBP - 120]
	call _temp507
	pop DWORD PTR [EBP - 120]
	pop DWORD PTR [EBP - 124]
	mov EBX, EAX
	mov DWORD PTR [EBP - 128], EBX
	mov EBX, DWORD PTR [EBP - 128]
	mov DWORD PTR [EBP - 24], EBX
	mov EBX, DWORD PTR [EBP - 8]
	mov DWORD PTR [EBP - 132], EBX
	push DWORD PTR [EBP - 132]
	call _temp513
	pop DWORD PTR [EBP - 132]
	mov EBX, EAX
	mov DWORD PTR [EBP - 136], EBX
	mov EBX, DWORD PTR [EBP - 136]
	mov DWORD PTR [EBP - 24], EBX
	mov EBX, DWORD PTR [EBP - 8]
	mov DWORD PTR [EBP - 140], EBX
	mov EBX, 24
	mov DWORD PTR [EBP - 144], EBX
	push DWORD PTR [EBP - 144]
	push DWORD PTR [EBP - 140]
	call _temp512
	pop DWORD PTR [EBP - 140]
	pop DWORD PTR [EBP - 144]
	mov EBX, EAX
	mov DWORD PTR [EBP - 148], EBX
	mov EAX, DWORD PTR [EBP - 148]
	mov DWORD PTR [ESP+4], EAX
	mov DWORD PTR [ESP], OFFSET FLAT:LC0
	call _printf
	mov EBX, DWORD PTR [EBP - 8]
	mov DWORD PTR [EBP - 152], EBX
	mov EBX, 12
	mov DWORD PTR [EBP - 156], EBX
	push DWORD PTR [EBP - 156]
	push DWORD PTR [EBP - 152]
	call _temp512
	pop DWORD PTR [EBP - 152]
	pop DWORD PTR [EBP - 156]
	mov EBX, EAX
	mov DWORD PTR [EBP - 160], EBX
	mov EAX, DWORD PTR [EBP - 160]
	mov DWORD PTR [ESP+4], EAX
	mov DWORD PTR [ESP], OFFSET FLAT:LC0
	call _printf
	mov EBX, DWORD PTR [EBP - 8]
	mov DWORD PTR [EBP - 164], EBX
	mov EBX, 16
	mov DWORD PTR [EBP - 168], EBX
	push DWORD PTR [EBP - 168]
	push DWORD PTR [EBP - 164]
	call _temp512
	pop DWORD PTR [EBP - 164]
	pop DWORD PTR [EBP - 168]
	mov EBX, EAX
	mov DWORD PTR [EBP - 172], EBX
	mov EAX, DWORD PTR [EBP - 172]
	mov DWORD PTR [ESP+4], EAX
	mov DWORD PTR [ESP], OFFSET FLAT:LC0
	call _printf
	mov EBX, DWORD PTR [EBP - 8]
	mov DWORD PTR [EBP - 176], EBX
	mov EBX, 50
	mov DWORD PTR [EBP - 180], EBX
	push DWORD PTR [EBP - 180]
	push DWORD PTR [EBP - 176]
	call _temp512
	pop DWORD PTR [EBP - 176]
	pop DWORD PTR [EBP - 180]
	mov EBX, EAX
	mov DWORD PTR [EBP - 184], EBX
	mov EAX, DWORD PTR [EBP - 184]
	mov DWORD PTR [ESP+4], EAX
	mov DWORD PTR [ESP], OFFSET FLAT:LC0
	call _printf
	mov EBX, DWORD PTR [EBP - 8]
	mov DWORD PTR [EBP - 188], EBX
	mov EBX, 12
	mov DWORD PTR [EBP - 192], EBX
	push DWORD PTR [EBP - 192]
	push DWORD PTR [EBP - 188]
	call _temp512
	pop DWORD PTR [EBP - 188]
	pop DWORD PTR [EBP - 192]
	mov EBX, EAX
	mov DWORD PTR [EBP - 196], EBX
	mov EAX, DWORD PTR [EBP - 196]
	mov DWORD PTR [ESP+4], EAX
	mov DWORD PTR [ESP], OFFSET FLAT:LC0
	call _printf
	mov EBX, DWORD PTR [EBP - 8]
	mov DWORD PTR [EBP - 200], EBX
	mov EBX, 12
	mov DWORD PTR [EBP - 204], EBX
	push DWORD PTR [EBP - 204]
	push DWORD PTR [EBP - 200]
	call _temp508
	pop DWORD PTR [EBP - 200]
	pop DWORD PTR [EBP - 204]
	mov EBX, EAX
	mov DWORD PTR [EBP - 208], EBX
	mov EBX, DWORD PTR [EBP - 208]
	mov DWORD PTR [EBP - 24], EBX
	mov EBX, DWORD PTR [EBP - 8]
	mov DWORD PTR [EBP - 212], EBX
	push DWORD PTR [EBP - 212]
	call _temp513
	pop DWORD PTR [EBP - 212]
	mov EBX, EAX
	mov DWORD PTR [EBP - 216], EBX
	mov EBX, DWORD PTR [EBP - 216]
	mov DWORD PTR [EBP - 24], EBX
	mov EBX, DWORD PTR [EBP - 8]
	mov DWORD PTR [EBP - 220], EBX
	mov EBX, 12
	mov DWORD PTR [EBP - 224], EBX
	push DWORD PTR [EBP - 224]
	push DWORD PTR [EBP - 220]
	call _temp512
	pop DWORD PTR [EBP - 220]
	pop DWORD PTR [EBP - 224]
	mov EBX, EAX
	mov DWORD PTR [EBP - 228], EBX
	mov EAX, DWORD PTR [EBP - 228]
	mov DWORD PTR [ESP+4], EAX
	mov DWORD PTR [ESP], OFFSET FLAT:LC0
	call _printf
	mov EBX, 0
	mov DWORD PTR [EBP - 232], EBX
	mov EBX, DWORD PTR [EBP - 232]
	mov EAX, EBX
	mov EBX, DWORD PTR [ESP-32]
	mov EAX, EBX
	add ESP, 232
	popad
	pop ebp
	.cfi_restore 5
	.cfi_def_cfa 4, 4
	ret
	.cfi_endproc

_temp495:
	.cfi_startproc
	push ebp
	.cfi_def_cfa_offset 8
	.cfi_offset 5, -8
	mov ebp, esp
	.cfi_def_cfa_register 5
	pushad
	mov EBX, ESP
	mov EBP, EBX
	sub ESP, 32
	mov EDX, DWORD PTR [EBP - 4]
	mov EDX, DWORD PTR [EBP + 12]
	mov EBX, DWORD PTR [EBP - 4]
	mov DWORD PTR [EBP - 8], EBX
	mov EDX, DWORD PTR [EBP - 12]
	mov EDX, DWORD PTR [EBP + 8]
	mov EDX, DWORD PTR [EBP - 8]
	mov EBX, DWORD PTR [EBP - 12]
	mov DWORD PTR [EBX + 8], EDX
	mov EBX, 0
	mov DWORD PTR [EBP - 16], EBX
	mov EDX, DWORD PTR [EBP - 20]
	mov EDX, DWORD PTR [EBP + 8]
	mov EDX, DWORD PTR [EBP - 16]
	mov EBX, DWORD PTR [EBP - 20]
	mov DWORD PTR [EBX + 12], EDX
	mov EBX, 0
	mov DWORD PTR [EBP - 24], EBX
	mov EDX, DWORD PTR [EBP - 28]
	mov EDX, DWORD PTR [EBP + 8]
	mov EDX, DWORD PTR [EBP - 24]
	mov EBX, DWORD PTR [EBP - 28]
	mov DWORD PTR [EBX + 16], EDX
	mov EBX, 1
	mov DWORD PTR [EBP - 32], EBX
	mov EBX, DWORD PTR [EBP - 32]
	mov EAX, EBX
	mov EBX, DWORD PTR [ESP-32]
	mov EAX, EBX
	add ESP, 32
	popad
	pop ebp
	.cfi_restore 5
	.cfi_def_cfa 4, 4
	ret
	.cfi_endproc

_temp496:
	.cfi_startproc
	push ebp
	.cfi_def_cfa_offset 8
	.cfi_offset 5, -8
	mov ebp, esp
	.cfi_def_cfa_register 5
	pushad
	mov EBX, ESP
	mov EBP, EBX
	sub ESP, 16
	mov EDX, DWORD PTR [EBP - 4]
	mov EDX, DWORD PTR [EBP + 12]
	mov EBX, DWORD PTR [EBP - 4]
	mov DWORD PTR [EBP - 8], EBX
	mov EDX, DWORD PTR [EBP - 12]
	mov EDX, DWORD PTR [EBP + 8]
	mov EDX, DWORD PTR [EBP - 8]
	mov EBX, DWORD PTR [EBP - 12]
	mov DWORD PTR [EBX + 4], EDX
	mov EBX, 1
	mov DWORD PTR [EBP - 16], EBX
	mov EBX, DWORD PTR [EBP - 16]
	mov EAX, EBX
	mov EBX, DWORD PTR [ESP-32]
	mov EAX, EBX
	add ESP, 16
	popad
	pop ebp
	.cfi_restore 5
	.cfi_def_cfa 4, 4
	ret
	.cfi_endproc

_temp497:
	.cfi_startproc
	push ebp
	.cfi_def_cfa_offset 8
	.cfi_offset 5, -8
	mov ebp, esp
	.cfi_def_cfa_register 5
	pushad
	mov EBX, ESP
	mov EBP, EBX
	sub ESP, 16
	mov EDX, DWORD PTR [EBP - 4]
	mov EDX, DWORD PTR [EBP + 12]
	mov EBX, DWORD PTR [EBP - 4]
	mov DWORD PTR [EBP - 8], EBX
	mov EDX, DWORD PTR [EBP - 12]
	mov EDX, DWORD PTR [EBP + 8]
	mov EDX, DWORD PTR [EBP - 8]
	mov EBX, DWORD PTR [EBP - 12]
	mov DWORD PTR [EBX + 0], EDX
	mov EBX, 1
	mov DWORD PTR [EBP - 16], EBX
	mov EBX, DWORD PTR [EBP - 16]
	mov EAX, EBX
	mov EBX, DWORD PTR [ESP-32]
	mov EAX, EBX
	add ESP, 16
	popad
	pop ebp
	.cfi_restore 5
	.cfi_def_cfa 4, 4
	ret
	.cfi_endproc

_temp498:
	.cfi_startproc
	push ebp
	.cfi_def_cfa_offset 8
	.cfi_offset 5, -8
	mov ebp, esp
	.cfi_def_cfa_register 5
	pushad
	mov EBX, ESP
	mov EBP, EBX
	sub ESP, 8
	mov EDX, DWORD PTR [EBP - 4]
	mov EDX, DWORD PTR [EBP + 8]
	mov EDX, DWORD PTR [EBP - 8]
	mov EBX, DWORD PTR [EBP - 4]
	mov EDX, DWORD PTR [EBX + 4]
	mov EBX, DWORD PTR [EBP - 8]
	mov EAX, EBX
	mov EBX, DWORD PTR [ESP-32]
	mov EAX, EBX
	add ESP, 8
	popad
	pop ebp
	.cfi_restore 5
	.cfi_def_cfa 4, 4
	ret
	.cfi_endproc

_temp499:
	.cfi_startproc
	push ebp
	.cfi_def_cfa_offset 8
	.cfi_offset 5, -8
	mov ebp, esp
	.cfi_def_cfa_register 5
	pushad
	mov EBX, ESP
	mov EBP, EBX
	sub ESP, 8
	mov EDX, DWORD PTR [EBP - 4]
	mov EDX, DWORD PTR [EBP + 8]
	mov EDX, DWORD PTR [EBP - 8]
	mov EBX, DWORD PTR [EBP - 4]
	mov EDX, DWORD PTR [EBX + 0]
	mov EBX, DWORD PTR [EBP - 8]
	mov EAX, EBX
	mov EBX, DWORD PTR [ESP-32]
	mov EAX, EBX
	add ESP, 8
	popad
	pop ebp
	.cfi_restore 5
	.cfi_def_cfa 4, 4
	ret
	.cfi_endproc

_temp500:
	.cfi_startproc
	push ebp
	.cfi_def_cfa_offset 8
	.cfi_offset 5, -8
	mov ebp, esp
	.cfi_def_cfa_register 5
	pushad
	mov EBX, ESP
	mov EBP, EBX
	sub ESP, 8
	mov EDX, DWORD PTR [EBP - 4]
	mov EDX, DWORD PTR [EBP + 8]
	mov EDX, DWORD PTR [EBP - 8]
	mov EBX, DWORD PTR [EBP - 4]
	mov EDX, DWORD PTR [EBX + 8]
	mov EBX, DWORD PTR [EBP - 8]
	mov EAX, EBX
	mov EBX, DWORD PTR [ESP-32]
	mov EAX, EBX
	add ESP, 8
	popad
	pop ebp
	.cfi_restore 5
	.cfi_def_cfa 4, 4
	ret
	.cfi_endproc

_temp501:
	.cfi_startproc
	push ebp
	.cfi_def_cfa_offset 8
	.cfi_offset 5, -8
	mov ebp, esp
	.cfi_def_cfa_register 5
	pushad
	mov EBX, ESP
	mov EBP, EBX
	sub ESP, 16
	mov EDX, DWORD PTR [EBP - 4]
	mov EDX, DWORD PTR [EBP + 12]
	mov EBX, DWORD PTR [EBP - 4]
	mov DWORD PTR [EBP - 8], EBX
	mov EDX, DWORD PTR [EBP - 12]
	mov EDX, DWORD PTR [EBP + 8]
	mov EDX, DWORD PTR [EBP - 8]
	mov EBX, DWORD PTR [EBP - 12]
	mov DWORD PTR [EBX + 8], EDX
	mov EBX, 1
	mov DWORD PTR [EBP - 16], EBX
	mov EBX, DWORD PTR [EBP - 16]
	mov EAX, EBX
	mov EBX, DWORD PTR [ESP-32]
	mov EAX, EBX
	add ESP, 16
	popad
	pop ebp
	.cfi_restore 5
	.cfi_def_cfa 4, 4
	ret
	.cfi_endproc

_temp502:
	.cfi_startproc
	push ebp
	.cfi_def_cfa_offset 8
	.cfi_offset 5, -8
	mov ebp, esp
	.cfi_def_cfa_register 5
	pushad
	mov EBX, ESP
	mov EBP, EBX
	sub ESP, 8
	mov EDX, DWORD PTR [EBP - 4]
	mov EDX, DWORD PTR [EBP + 8]
	mov EDX, DWORD PTR [EBP - 8]
	mov EBX, DWORD PTR [EBP - 4]
	mov EDX, DWORD PTR [EBX + 16]
	mov EBX, DWORD PTR [EBP - 8]
	mov EAX, EBX
	mov EBX, DWORD PTR [ESP-32]
	mov EAX, EBX
	add ESP, 8
	popad
	pop ebp
	.cfi_restore 5
	.cfi_def_cfa 4, 4
	ret
	.cfi_endproc

_temp503:
	.cfi_startproc
	push ebp
	.cfi_def_cfa_offset 8
	.cfi_offset 5, -8
	mov ebp, esp
	.cfi_def_cfa_register 5
	pushad
	mov EBX, ESP
	mov EBP, EBX
	sub ESP, 8
	mov EDX, DWORD PTR [EBP - 4]
	mov EDX, DWORD PTR [EBP + 8]
	mov EDX, DWORD PTR [EBP - 8]
	mov EBX, DWORD PTR [EBP - 4]
	mov EDX, DWORD PTR [EBX + 12]
	mov EBX, DWORD PTR [EBP - 8]
	mov EAX, EBX
	mov EBX, DWORD PTR [ESP-32]
	mov EAX, EBX
	add ESP, 8
	popad
	pop ebp
	.cfi_restore 5
	.cfi_def_cfa 4, 4
	ret
	.cfi_endproc

_temp504:
	.cfi_startproc
	push ebp
	.cfi_def_cfa_offset 8
	.cfi_offset 5, -8
	mov ebp, esp
	.cfi_def_cfa_register 5
	pushad
	mov EBX, ESP
	mov EBP, EBX
	sub ESP, 16
	mov EDX, DWORD PTR [EBP - 4]
	mov EDX, DWORD PTR [EBP + 12]
	mov EBX, DWORD PTR [EBP - 4]
	mov DWORD PTR [EBP - 8], EBX
	mov EDX, DWORD PTR [EBP - 12]
	mov EDX, DWORD PTR [EBP + 8]
	mov EDX, DWORD PTR [EBP - 8]
	mov EBX, DWORD PTR [EBP - 12]
	mov DWORD PTR [EBX + 12], EDX
	mov EBX, 1
	mov DWORD PTR [EBP - 16], EBX
	mov EBX, DWORD PTR [EBP - 16]
	mov EAX, EBX
	mov EBX, DWORD PTR [ESP-32]
	mov EAX, EBX
	add ESP, 16
	popad
	pop ebp
	.cfi_restore 5
	.cfi_def_cfa 4, 4
	ret
	.cfi_endproc

_temp505:
	.cfi_startproc
	push ebp
	.cfi_def_cfa_offset 8
	.cfi_offset 5, -8
	mov ebp, esp
	.cfi_def_cfa_register 5
	pushad
	mov EBX, ESP
	mov EBP, EBX
	sub ESP, 16
	mov EDX, DWORD PTR [EBP - 4]
	mov EDX, DWORD PTR [EBP + 12]
	mov EBX, DWORD PTR [EBP - 4]
	mov DWORD PTR [EBP - 8], EBX
	mov EDX, DWORD PTR [EBP - 12]
	mov EDX, DWORD PTR [EBP + 8]
	mov EDX, DWORD PTR [EBP - 8]
	mov EBX, DWORD PTR [EBP - 12]
	mov DWORD PTR [EBX + 16], EDX
	mov EBX, 1
	mov DWORD PTR [EBP - 16], EBX
	mov EBX, DWORD PTR [EBP - 16]
	mov EAX, EBX
	mov EBX, DWORD PTR [ESP-32]
	mov EAX, EBX
	add ESP, 16
	popad
	pop ebp
	.cfi_restore 5
	.cfi_def_cfa 4, 4
	ret
	.cfi_endproc

_temp506:
	.cfi_startproc
	push ebp
	.cfi_def_cfa_offset 8
	.cfi_offset 5, -8
	mov ebp, esp
	.cfi_def_cfa_register 5
	pushad
	mov EBX, ESP
	mov EBP, EBX
	sub ESP, 76
	mov EDX, DWORD PTR [EBP - 4]
	mov EDX, DWORD PTR [EBP + 16]
	mov EDX, DWORD PTR [EBP - 8]
	mov EDX, DWORD PTR [EBP + 12]
	mov EBX, 0
	mov DWORD PTR [EBP - 12], EBX
	mov EBX, DWORD PTR [EBP - 12]
	mov DWORD PTR [EBP - 16], EBX
	mov EBX, DWORD PTR [EBP - 8]
	mov DWORD PTR [EBP - 20], EBX
	mov EBX, 1
	mov DWORD PTR [EBP - 24], EBX
	mov EAX, DWORD PTR [EBP - 20]
	mov EBX, DWORD PTR [EBP - 24]
	add EAX, EBX
	mov DWORD PTR [EBP - 28], EAX
	mov EBX, DWORD PTR [EBP - 28]
	mov DWORD PTR [EBP - 32], EBX
	mov EBX, DWORD PTR [EBP - 4]
	mov DWORD PTR [EBP - 36], EBX
	mov EBX, DWORD PTR [EBP - 8]
	mov DWORD PTR [EBP - 40], EBX
	mov EAX, DWORD PTR [EBP - 36]
	mov EBX, DWORD PTR [EBP - 40]
	cmp EAX, EBX
	setl AL
	mov DWORD PTR [EBP - 44], EAX
	je _label36
	mov EBX, 0
	mov DWORD PTR [EBP - 48], EBX
	mov EBX, DWORD PTR [EBP - 48]
	mov DWORD PTR [EBP - 16], EBX
	jmp _label37
_label36:
	mov EBX, DWORD PTR [EBP - 4]
	mov DWORD PTR [EBP - 52], EBX
	mov EBX, DWORD PTR [EBP - 32]
	mov DWORD PTR [EBP - 56], EBX
	mov EAX, DWORD PTR [EBP - 52]
	mov EBX, DWORD PTR [EBP - 56]
	cmp EAX, EBX
	setl AL
	mov DWORD PTR [EBP - 60], EAX
	mov EBX, DWORD PTR [EBP - 60]
	not EAX
	mov DWORD PTR [EBP - 64], EAX
	je _label38
	mov EBX, 0
	mov DWORD PTR [EBP - 68], EBX
	mov EBX, DWORD PTR [EBP - 68]
	mov DWORD PTR [EBP - 16], EBX
	jmp _label39
_label38:
	mov EBX, 1
	mov DWORD PTR [EBP - 72], EBX
	mov EBX, DWORD PTR [EBP - 72]
	mov DWORD PTR [EBP - 16], EBX
_label39:
_label37:
	mov EBX, DWORD PTR [EBP - 16]
	mov DWORD PTR [EBP - 76], EBX
	mov EBX, DWORD PTR [EBP - 76]
	mov EAX, EBX
	mov EBX, DWORD PTR [ESP-32]
	mov EAX, EBX
	add ESP, 76
	popad
	pop ebp
	.cfi_restore 5
	.cfi_def_cfa 4, 4
	ret
	.cfi_endproc

_temp507:
	.cfi_startproc
	push ebp
	.cfi_def_cfa_offset 8
	.cfi_offset 5, -8
	mov ebp, esp
	.cfi_def_cfa_register 5
	pushad
	mov EBX, ESP
	mov EBP, EBX
	sub ESP, 164
	mov EDX, DWORD PTR [EBP - 4]
	mov EDX, DWORD PTR [EBP + 12]
	mov EBX, 24
	mov DWORD PTR [ESP], EBX
	call _malloc
	mov DWORD PTR [EBP - 8], EAX
	mov EBX, DWORD PTR [EBP - 8]
	mov DWORD PTR [EBP - 12], EBX
	mov EBX, DWORD PTR [EBP - 12]
	mov DWORD PTR [EBP - 16], EBX
	mov EBX, DWORD PTR [EBP - 4]
	mov DWORD PTR [EBP - 20], EBX
	push DWORD PTR [EBP - 20]
	push DWORD PTR [EBP - 16]
	call _temp495
	pop DWORD PTR [EBP - 16]
	pop DWORD PTR [EBP - 20]
	mov EBX, EAX
	mov DWORD PTR [EBP - 24], EBX
	mov EBX, DWORD PTR [EBP - 24]
	mov DWORD PTR [EBP - 28], EBX
	mov EDX, DWORD PTR [EBP - 32]
	mov EDX, DWORD PTR [EBP + 8]
	mov EBX, DWORD PTR [EBP - 32]
	mov DWORD PTR [EBP - 36], EBX
	mov EBX, 1
	mov DWORD PTR [EBP - 40], EBX
	mov EBX, DWORD PTR [EBP - 40]
	mov DWORD PTR [EBP - 44], EBX
_label40:
	mov EBX, DWORD PTR [EBP - 44]
	mov DWORD PTR [EBP - 48], EBX
	je _label41
	mov EBX, DWORD PTR [EBP - 36]
	mov DWORD PTR [EBP - 52], EBX
	push DWORD PTR [EBP - 52]
	call _temp500
	pop DWORD PTR [EBP - 52]
	mov EBX, EAX
	mov DWORD PTR [EBP - 56], EBX
	mov EBX, DWORD PTR [EBP - 56]
	mov DWORD PTR [EBP - 60], EBX
	mov EBX, DWORD PTR [EBP - 4]
	mov DWORD PTR [EBP - 64], EBX
	mov EBX, DWORD PTR [EBP - 60]
	mov DWORD PTR [EBP - 68], EBX
	mov EAX, DWORD PTR [EBP - 64]
	mov EBX, DWORD PTR [EBP - 68]
	cmp EAX, EBX
	setl AL
	mov DWORD PTR [EBP - 72], EAX
	je _label42
	mov EBX, DWORD PTR [EBP - 36]
	mov DWORD PTR [EBP - 76], EBX
	push DWORD PTR [EBP - 76]
	call _temp503
	pop DWORD PTR [EBP - 76]
	mov EBX, EAX
	mov DWORD PTR [EBP - 80], EBX
	je _label43
	mov EBX, DWORD PTR [EBP - 36]
	mov DWORD PTR [EBP - 84], EBX
	push DWORD PTR [EBP - 84]
	call _temp499
	pop DWORD PTR [EBP - 84]
	mov EBX, EAX
	mov DWORD PTR [EBP - 88], EBX
	mov EBX, DWORD PTR [EBP - 88]
	mov DWORD PTR [EBP - 36], EBX
	jmp _label44
_label43:
	mov EBX, 0
	mov DWORD PTR [EBP - 92], EBX
	mov EBX, DWORD PTR [EBP - 92]
	mov DWORD PTR [EBP - 44], EBX
	mov EBX, DWORD PTR [EBP - 36]
	mov DWORD PTR [EBP - 96], EBX
	mov EBX, 1
	mov DWORD PTR [EBP - 100], EBX
	push DWORD PTR [EBP - 100]
	push DWORD PTR [EBP - 96]
	call _temp504
	pop DWORD PTR [EBP - 96]
	pop DWORD PTR [EBP - 100]
	mov EBX, EAX
	mov DWORD PTR [EBP - 104], EBX
	mov EBX, DWORD PTR [EBP - 104]
	mov DWORD PTR [EBP - 28], EBX
	mov EBX, DWORD PTR [EBP - 36]
	mov DWORD PTR [EBP - 108], EBX
	mov EBX, DWORD PTR [EBP - 12]
	mov DWORD PTR [EBP - 112], EBX
	push DWORD PTR [EBP - 112]
	push DWORD PTR [EBP - 108]
	call _temp497
	pop DWORD PTR [EBP - 108]
	pop DWORD PTR [EBP - 112]
	mov EBX, EAX
	mov DWORD PTR [EBP - 116], EBX
	mov EBX, DWORD PTR [EBP - 116]
	mov DWORD PTR [EBP - 28], EBX
_label44:
	jmp _label45
_label42:
	mov EBX, DWORD PTR [EBP - 36]
	mov DWORD PTR [EBP - 120], EBX
	push DWORD PTR [EBP - 120]
	call _temp502
	pop DWORD PTR [EBP - 120]
	mov EBX, EAX
	mov DWORD PTR [EBP - 124], EBX
	je _label46
	mov EBX, DWORD PTR [EBP - 36]
	mov DWORD PTR [EBP - 128], EBX
	push DWORD PTR [EBP - 128]
	call _temp498
	pop DWORD PTR [EBP - 128]
	mov EBX, EAX
	mov DWORD PTR [EBP - 132], EBX
	mov EBX, DWORD PTR [EBP - 132]
	mov DWORD PTR [EBP - 36], EBX
	jmp _label47
_label46:
	mov EBX, 0
	mov DWORD PTR [EBP - 136], EBX
	mov EBX, DWORD PTR [EBP - 136]
	mov DWORD PTR [EBP - 44], EBX
	mov EBX, DWORD PTR [EBP - 36]
	mov DWORD PTR [EBP - 140], EBX
	mov EBX, 1
	mov DWORD PTR [EBP - 144], EBX
	push DWORD PTR [EBP - 144]
	push DWORD PTR [EBP - 140]
	call _temp505
	pop DWORD PTR [EBP - 140]
	pop DWORD PTR [EBP - 144]
	mov EBX, EAX
	mov DWORD PTR [EBP - 148], EBX
	mov EBX, DWORD PTR [EBP - 148]
	mov DWORD PTR [EBP - 28], EBX
	mov EBX, DWORD PTR [EBP - 36]
	mov DWORD PTR [EBP - 152], EBX
	mov EBX, DWORD PTR [EBP - 12]
	mov DWORD PTR [EBP - 156], EBX
	push DWORD PTR [EBP - 156]
	push DWORD PTR [EBP - 152]
	call _temp496
	pop DWORD PTR [EBP - 152]
	pop DWORD PTR [EBP - 156]
	mov EBX, EAX
	mov DWORD PTR [EBP - 160], EBX
	mov EBX, DWORD PTR [EBP - 160]
	mov DWORD PTR [EBP - 28], EBX
_label47:
_label45:
	jmp _label40
_label41:
	mov EBX, 1
	mov DWORD PTR [EBP - 164], EBX
	mov EBX, DWORD PTR [EBP - 164]
	mov EAX, EBX
	mov EBX, DWORD PTR [ESP-32]
	mov EAX, EBX
	add ESP, 164
	popad
	pop ebp
	.cfi_restore 5
	.cfi_def_cfa 4, 4
	ret
	.cfi_endproc

_temp508:
	.cfi_startproc
	push ebp
	.cfi_def_cfa_offset 8
	.cfi_offset 5, -8
	mov ebp, esp
	.cfi_def_cfa_register 5
	pushad
	mov EBX, ESP
	mov EBP, EBX
	sub ESP, 220
	mov EDX, DWORD PTR [EBP - 4]
	mov EDX, DWORD PTR [EBP + 12]
	mov EDX, DWORD PTR [EBP - 8]
	mov EDX, DWORD PTR [EBP + 8]
	mov EBX, DWORD PTR [EBP - 8]
	mov DWORD PTR [EBP - 12], EBX
	mov EDX, DWORD PTR [EBP - 16]
	mov EDX, DWORD PTR [EBP + 8]
	mov EBX, DWORD PTR [EBP - 16]
	mov DWORD PTR [EBP - 20], EBX
	mov EBX, 1
	mov DWORD PTR [EBP - 24], EBX
	mov EBX, DWORD PTR [EBP - 24]
	mov DWORD PTR [EBP - 28], EBX
	mov EBX, 0
	mov DWORD PTR [EBP - 32], EBX
	mov EBX, DWORD PTR [EBP - 32]
	mov DWORD PTR [EBP - 36], EBX
	mov EBX, 1
	mov DWORD PTR [EBP - 40], EBX
	mov EBX, DWORD PTR [EBP - 40]
	mov DWORD PTR [EBP - 44], EBX
_label48:
	mov EBX, DWORD PTR [EBP - 28]
	mov DWORD PTR [EBP - 48], EBX
	je _label49
	mov EBX, DWORD PTR [EBP - 12]
	mov DWORD PTR [EBP - 52], EBX
	push DWORD PTR [EBP - 52]
	call _temp500
	pop DWORD PTR [EBP - 52]
	mov EBX, EAX
	mov DWORD PTR [EBP - 56], EBX
	mov EBX, DWORD PTR [EBP - 56]
	mov DWORD PTR [EBP - 60], EBX
	mov EBX, DWORD PTR [EBP - 4]
	mov DWORD PTR [EBP - 64], EBX
	mov EBX, DWORD PTR [EBP - 60]
	mov DWORD PTR [EBP - 68], EBX
	mov EAX, DWORD PTR [EBP - 64]
	mov EBX, DWORD PTR [EBP - 68]
	cmp EAX, EBX
	setl AL
	mov DWORD PTR [EBP - 72], EAX
	je _label50
	mov EBX, DWORD PTR [EBP - 12]
	mov DWORD PTR [EBP - 76], EBX
	push DWORD PTR [EBP - 76]
	call _temp503
	pop DWORD PTR [EBP - 76]
	mov EBX, EAX
	mov DWORD PTR [EBP - 80], EBX
	je _label51
	mov EBX, DWORD PTR [EBP - 12]
	mov DWORD PTR [EBP - 84], EBX
	mov EBX, DWORD PTR [EBP - 84]
	mov DWORD PTR [EBP - 20], EBX
	mov EBX, DWORD PTR [EBP - 12]
	mov DWORD PTR [EBP - 88], EBX
	push DWORD PTR [EBP - 88]
	call _temp499
	pop DWORD PTR [EBP - 88]
	mov EBX, EAX
	mov DWORD PTR [EBP - 92], EBX
	mov EBX, DWORD PTR [EBP - 92]
	mov DWORD PTR [EBP - 12], EBX
	jmp _label52
_label51:
	mov EBX, 0
	mov DWORD PTR [EBP - 96], EBX
	mov EBX, DWORD PTR [EBP - 96]
	mov DWORD PTR [EBP - 28], EBX
_label52:
	jmp _label53
_label50:
	mov EBX, DWORD PTR [EBP - 60]
	mov DWORD PTR [EBP - 100], EBX
	mov EBX, DWORD PTR [EBP - 4]
	mov DWORD PTR [EBP - 104], EBX
	mov EAX, DWORD PTR [EBP - 100]
	mov EBX, DWORD PTR [EBP - 104]
	cmp EAX, EBX
	setl AL
	mov DWORD PTR [EBP - 108], EAX
	je _label54
	mov EBX, DWORD PTR [EBP - 12]
	mov DWORD PTR [EBP - 112], EBX
	push DWORD PTR [EBP - 112]
	call _temp502
	pop DWORD PTR [EBP - 112]
	mov EBX, EAX
	mov DWORD PTR [EBP - 116], EBX
	je _label55
	mov EBX, DWORD PTR [EBP - 12]
	mov DWORD PTR [EBP - 120], EBX
	mov EBX, DWORD PTR [EBP - 120]
	mov DWORD PTR [EBP - 20], EBX
	mov EBX, DWORD PTR [EBP - 12]
	mov DWORD PTR [EBP - 124], EBX
	push DWORD PTR [EBP - 124]
	call _temp498
	pop DWORD PTR [EBP - 124]
	mov EBX, EAX
	mov DWORD PTR [EBP - 128], EBX
	mov EBX, DWORD PTR [EBP - 128]
	mov DWORD PTR [EBP - 12], EBX
	jmp _label56
_label55:
	mov EBX, 0
	mov DWORD PTR [EBP - 132], EBX
	mov EBX, DWORD PTR [EBP - 132]
	mov DWORD PTR [EBP - 28], EBX
_label56:
	jmp _label57
_label54:
	mov EBX, DWORD PTR [EBP - 44]
	mov DWORD PTR [EBP - 136], EBX
	je _label58
	mov EBX, DWORD PTR [EBP - 12]
	mov DWORD PTR [EBP - 140], EBX
	push DWORD PTR [EBP - 140]
	call _temp502
	pop DWORD PTR [EBP - 140]
	mov EBX, EAX
	mov DWORD PTR [EBP - 144], EBX
	mov EBX, DWORD PTR [EBP - 144]
	not EAX
	mov DWORD PTR [EBP - 148], EAX
	mov EBX, DWORD PTR [EBP - 12]
	mov DWORD PTR [EBP - 152], EBX
	push DWORD PTR [EBP - 152]
	call _temp503
	pop DWORD PTR [EBP - 152]
	mov EBX, EAX
	mov DWORD PTR [EBP - 156], EBX
	mov EBX, DWORD PTR [EBP - 156]
	not EAX
	mov DWORD PTR [EBP - 160], EAX
	mov EAX, DWORD PTR [EBP - 148]
	mov EBX, DWORD PTR [EBP - 160]
	and EAX, EBX
	mov DWORD PTR [EBP - 164], EAX
	je _label59
	mov EBX, 1
	mov DWORD PTR [EBP - 168], EBX
	mov EBX, DWORD PTR [EBP - 168]
	mov DWORD PTR [EBP - 172], EBX
	jmp _label60
_label59:
	mov EDX, DWORD PTR [EBP - 176]
	mov EDX, DWORD PTR [EBP + 8]
	mov EBX, DWORD PTR [EBP - 20]
	mov DWORD PTR [EBP - 180], EBX
	mov EBX, DWORD PTR [EBP - 12]
	mov DWORD PTR [EBP - 184], EBX
	push DWORD PTR [EBP - 184]
	push DWORD PTR [EBP - 180]
	push DWORD PTR [EBP - 176]
	call _temp509
	pop DWORD PTR [EBP - 176]
	pop DWORD PTR [EBP - 180]
	pop DWORD PTR [EBP - 184]
	mov EBX, EAX
	mov DWORD PTR [EBP - 188], EBX
	mov EBX, DWORD PTR [EBP - 188]
	mov DWORD PTR [EBP - 172], EBX
_label60:
	jmp _label61
_label58:
	mov EDX, DWORD PTR [EBP - 192]
	mov EDX, DWORD PTR [EBP + 8]
	mov EBX, DWORD PTR [EBP - 20]
	mov DWORD PTR [EBP - 196], EBX
	mov EBX, DWORD PTR [EBP - 12]
	mov DWORD PTR [EBP - 200], EBX
	push DWORD PTR [EBP - 200]
	push DWORD PTR [EBP - 196]
	push DWORD PTR [EBP - 192]
	call _temp509
	pop DWORD PTR [EBP - 192]
	pop DWORD PTR [EBP - 196]
	pop DWORD PTR [EBP - 200]
	mov EBX, EAX
	mov DWORD PTR [EBP - 204], EBX
	mov EBX, DWORD PTR [EBP - 204]
	mov DWORD PTR [EBP - 172], EBX
_label61:
	mov EBX, 1
	mov DWORD PTR [EBP - 208], EBX
	mov EBX, DWORD PTR [EBP - 208]
	mov DWORD PTR [EBP - 36], EBX
	mov EBX, 0
	mov DWORD PTR [EBP - 212], EBX
	mov EBX, DWORD PTR [EBP - 212]
	mov DWORD PTR [EBP - 28], EBX
_label57:
_label53:
	mov EBX, 0
	mov DWORD PTR [EBP - 216], EBX
	mov EBX, DWORD PTR [EBP - 216]
	mov DWORD PTR [EBP - 44], EBX
	jmp _label48
_label49:
	mov EBX, DWORD PTR [EBP - 36]
	mov DWORD PTR [EBP - 220], EBX
	mov EBX, DWORD PTR [EBP - 220]
	mov EAX, EBX
	mov EBX, DWORD PTR [ESP-32]
	mov EAX, EBX
	add ESP, 220
	popad
	pop ebp
	.cfi_restore 5
	.cfi_def_cfa 4, 4
	ret
	.cfi_endproc

_temp509:
	.cfi_startproc
	push ebp
	.cfi_def_cfa_offset 8
	.cfi_offset 5, -8
	mov ebp, esp
	.cfi_def_cfa_register 5
	pushad
	mov EBX, ESP
	mov EBP, EBX
	sub ESP, 160
	mov EDX, DWORD PTR [EBP - 4]
	mov EDX, DWORD PTR [EBP + 16]
	mov EDX, DWORD PTR [EBP - 8]
	mov EDX, DWORD PTR [EBP + 12]
	mov EBX, DWORD PTR [EBP - 8]
	mov DWORD PTR [EBP - 12], EBX
	push DWORD PTR [EBP - 12]
	call _temp503
	pop DWORD PTR [EBP - 12]
	mov EBX, EAX
	mov DWORD PTR [EBP - 16], EBX
	je _label62
	mov EDX, DWORD PTR [EBP - 20]
	mov EDX, DWORD PTR [EBP + 8]
	mov EBX, DWORD PTR [EBP - 4]
	mov DWORD PTR [EBP - 24], EBX
	mov EBX, DWORD PTR [EBP - 8]
	mov DWORD PTR [EBP - 28], EBX
	push DWORD PTR [EBP - 28]
	push DWORD PTR [EBP - 24]
	push DWORD PTR [EBP - 20]
	call _temp511
	pop DWORD PTR [EBP - 20]
	pop DWORD PTR [EBP - 24]
	pop DWORD PTR [EBP - 28]
	mov EBX, EAX
	mov DWORD PTR [EBP - 32], EBX
	mov EBX, DWORD PTR [EBP - 32]
	mov DWORD PTR [EBP - 36], EBX
	jmp _label63
_label62:
	mov EBX, DWORD PTR [EBP - 8]
	mov DWORD PTR [EBP - 40], EBX
	push DWORD PTR [EBP - 40]
	call _temp502
	pop DWORD PTR [EBP - 40]
	mov EBX, EAX
	mov DWORD PTR [EBP - 44], EBX
	je _label64
	mov EDX, DWORD PTR [EBP - 48]
	mov EDX, DWORD PTR [EBP + 8]
	mov EBX, DWORD PTR [EBP - 4]
	mov DWORD PTR [EBP - 52], EBX
	mov EBX, DWORD PTR [EBP - 8]
	mov DWORD PTR [EBP - 56], EBX
	push DWORD PTR [EBP - 56]
	push DWORD PTR [EBP - 52]
	push DWORD PTR [EBP - 48]
	call _temp510
	pop DWORD PTR [EBP - 48]
	pop DWORD PTR [EBP - 52]
	pop DWORD PTR [EBP - 56]
	mov EBX, EAX
	mov DWORD PTR [EBP - 60], EBX
	mov EBX, DWORD PTR [EBP - 60]
	mov DWORD PTR [EBP - 36], EBX
	jmp _label65
_label64:
	mov EBX, DWORD PTR [EBP - 8]
	mov DWORD PTR [EBP - 64], EBX
	push DWORD PTR [EBP - 64]
	call _temp500
	pop DWORD PTR [EBP - 64]
	mov EBX, EAX
	mov DWORD PTR [EBP - 68], EBX
	mov EBX, DWORD PTR [EBP - 68]
	mov DWORD PTR [EBP - 72], EBX
	mov EBX, DWORD PTR [EBP - 4]
	mov DWORD PTR [EBP - 76], EBX
	push DWORD PTR [EBP - 76]
	call _temp499
	pop DWORD PTR [EBP - 76]
	mov EBX, EAX
	mov DWORD PTR [EBP - 80], EBX
	push DWORD PTR [EBP - 80]
	call _temp500
	pop DWORD PTR [EBP - 80]
	mov EBX, EAX
	mov DWORD PTR [EBP - 84], EBX
	mov EBX, DWORD PTR [EBP - 84]
	mov DWORD PTR [EBP - 88], EBX
	mov EDX, DWORD PTR [EBP - 92]
	mov EDX, DWORD PTR [EBP + 8]
	mov EBX, DWORD PTR [EBP - 72]
	mov DWORD PTR [EBP - 96], EBX
	mov EBX, DWORD PTR [EBP - 88]
	mov DWORD PTR [EBP - 100], EBX
	push DWORD PTR [EBP - 100]
	push DWORD PTR [EBP - 96]
	push DWORD PTR [EBP - 92]
	call _temp506
	pop DWORD PTR [EBP - 92]
	pop DWORD PTR [EBP - 96]
	pop DWORD PTR [EBP - 100]
	mov EBX, EAX
	mov DWORD PTR [EBP - 104], EBX
	je _label66
	mov EBX, DWORD PTR [EBP - 4]
	mov DWORD PTR [EBP - 108], EBX
	mov EDX, DWORD PTR [EBP - 112]
	mov EDX, DWORD PTR [EBP + 8]
	mov EDX, DWORD PTR [EBP - 116]
	mov EBX, DWORD PTR [EBP - 112]
	mov EDX, DWORD PTR [EBX + 20]
	push DWORD PTR [EBP - 116]
	push DWORD PTR [EBP - 108]
	call _temp497
	pop DWORD PTR [EBP - 108]
	pop DWORD PTR [EBP - 116]
	mov EBX, EAX
	mov DWORD PTR [EBP - 120], EBX
	mov EBX, DWORD PTR [EBP - 120]
	mov DWORD PTR [EBP - 36], EBX
	mov EBX, DWORD PTR [EBP - 4]
	mov DWORD PTR [EBP - 124], EBX
	mov EBX, 0
	mov DWORD PTR [EBP - 128], EBX
	push DWORD PTR [EBP - 128]
	push DWORD PTR [EBP - 124]
	call _temp504
	pop DWORD PTR [EBP - 124]
	pop DWORD PTR [EBP - 128]
	mov EBX, EAX
	mov DWORD PTR [EBP - 132], EBX
	mov EBX, DWORD PTR [EBP - 132]
	mov DWORD PTR [EBP - 36], EBX
	jmp _label67
_label66:
	mov EBX, DWORD PTR [EBP - 4]
	mov DWORD PTR [EBP - 136], EBX
	mov EDX, DWORD PTR [EBP - 112]
	mov EDX, DWORD PTR [EBP + 8]
	mov EDX, DWORD PTR [EBP - 140]
	mov EBX, DWORD PTR [EBP - 112]
	mov EDX, DWORD PTR [EBX + 20]
	push DWORD PTR [EBP - 140]
	push DWORD PTR [EBP - 136]
	call _temp496
	pop DWORD PTR [EBP - 136]
	pop DWORD PTR [EBP - 140]
	mov EBX, EAX
	mov DWORD PTR [EBP - 144], EBX
	mov EBX, DWORD PTR [EBP - 144]
	mov DWORD PTR [EBP - 36], EBX
	mov EBX, DWORD PTR [EBP - 4]
	mov DWORD PTR [EBP - 148], EBX
	mov EBX, 0
	mov DWORD PTR [EBP - 152], EBX
	push DWORD PTR [EBP - 152]
	push DWORD PTR [EBP - 148]
	call _temp505
	pop DWORD PTR [EBP - 148]
	pop DWORD PTR [EBP - 152]
	mov EBX, EAX
	mov DWORD PTR [EBP - 156], EBX
	mov EBX, DWORD PTR [EBP - 156]
	mov DWORD PTR [EBP - 36], EBX
_label67:
_label65:
_label63:
	mov EBX, 1
	mov DWORD PTR [EBP - 160], EBX
	mov EBX, DWORD PTR [EBP - 160]
	mov EAX, EBX
	mov EBX, DWORD PTR [ESP-32]
	mov EAX, EBX
	add ESP, 160
	popad
	pop ebp
	.cfi_restore 5
	.cfi_def_cfa 4, 4
	ret
	.cfi_endproc

_temp510:
	.cfi_startproc
	push ebp
	.cfi_def_cfa_offset 8
	.cfi_offset 5, -8
	mov ebp, esp
	.cfi_def_cfa_register 5
	pushad
	mov EBX, ESP
	mov EBP, EBX
	sub ESP, 84
	mov EDX, DWORD PTR [EBP - 4]
	mov EDX, DWORD PTR [EBP + 16]
	mov EDX, DWORD PTR [EBP - 8]
	mov EDX, DWORD PTR [EBP + 12]
_label68:
	mov EBX, DWORD PTR [EBP - 8]
	mov DWORD PTR [EBP - 12], EBX
	push DWORD PTR [EBP - 12]
	call _temp502
	pop DWORD PTR [EBP - 12]
	mov EBX, EAX
	mov DWORD PTR [EBP - 16], EBX
	je _label69
	mov EBX, DWORD PTR [EBP - 8]
	mov DWORD PTR [EBP - 20], EBX
	mov EBX, DWORD PTR [EBP - 8]
	mov DWORD PTR [EBP - 24], EBX
	push DWORD PTR [EBP - 24]
	call _temp498
	pop DWORD PTR [EBP - 24]
	mov EBX, EAX
	mov DWORD PTR [EBP - 28], EBX
	push DWORD PTR [EBP - 28]
	call _temp500
	pop DWORD PTR [EBP - 28]
	mov EBX, EAX
	mov DWORD PTR [EBP - 32], EBX
	push DWORD PTR [EBP - 32]
	push DWORD PTR [EBP - 20]
	call _temp501
	pop DWORD PTR [EBP - 20]
	pop DWORD PTR [EBP - 32]
	mov EBX, EAX
	mov DWORD PTR [EBP - 36], EBX
	mov EBX, DWORD PTR [EBP - 36]
	mov DWORD PTR [EBP - 40], EBX
	mov EBX, DWORD PTR [EBP - 8]
	mov DWORD PTR [EBP - 44], EBX
	mov EBX, DWORD PTR [EBP - 44]
	mov DWORD PTR [EBP - 4], EBX
	mov EBX, DWORD PTR [EBP - 8]
	mov DWORD PTR [EBP - 48], EBX
	push DWORD PTR [EBP - 48]
	call _temp498
	pop DWORD PTR [EBP - 48]
	mov EBX, EAX
	mov DWORD PTR [EBP - 52], EBX
	mov EBX, DWORD PTR [EBP - 52]
	mov DWORD PTR [EBP - 8], EBX
	jmp _label68
_label69:
	mov EBX, DWORD PTR [EBP - 4]
	mov DWORD PTR [EBP - 56], EBX
	mov EDX, DWORD PTR [EBP - 60]
	mov EDX, DWORD PTR [EBP + 8]
	mov EDX, DWORD PTR [EBP - 64]
	mov EBX, DWORD PTR [EBP - 60]
	mov EDX, DWORD PTR [EBX + 20]
	push DWORD PTR [EBP - 64]
	push DWORD PTR [EBP - 56]
	call _temp496
	pop DWORD PTR [EBP - 56]
	pop DWORD PTR [EBP - 64]
	mov EBX, EAX
	mov DWORD PTR [EBP - 68], EBX
	mov EBX, DWORD PTR [EBP - 68]
	mov DWORD PTR [EBP - 40], EBX
	mov EBX, DWORD PTR [EBP - 4]
	mov DWORD PTR [EBP - 72], EBX
	mov EBX, 0
	mov DWORD PTR [EBP - 76], EBX
	push DWORD PTR [EBP - 76]
	push DWORD PTR [EBP - 72]
	call _temp505
	pop DWORD PTR [EBP - 72]
	pop DWORD PTR [EBP - 76]
	mov EBX, EAX
	mov DWORD PTR [EBP - 80], EBX
	mov EBX, DWORD PTR [EBP - 80]
	mov DWORD PTR [EBP - 40], EBX
	mov EBX, 1
	mov DWORD PTR [EBP - 84], EBX
	mov EBX, DWORD PTR [EBP - 84]
	mov EAX, EBX
	mov EBX, DWORD PTR [ESP-32]
	mov EAX, EBX
	add ESP, 84
	popad
	pop ebp
	.cfi_restore 5
	.cfi_def_cfa 4, 4
	ret
	.cfi_endproc

_temp511:
	.cfi_startproc
	push ebp
	.cfi_def_cfa_offset 8
	.cfi_offset 5, -8
	mov ebp, esp
	.cfi_def_cfa_register 5
	pushad
	mov EBX, ESP
	mov EBP, EBX
	sub ESP, 84
	mov EDX, DWORD PTR [EBP - 4]
	mov EDX, DWORD PTR [EBP + 16]
	mov EDX, DWORD PTR [EBP - 8]
	mov EDX, DWORD PTR [EBP + 12]
_label70:
	mov EBX, DWORD PTR [EBP - 8]
	mov DWORD PTR [EBP - 12], EBX
	push DWORD PTR [EBP - 12]
	call _temp503
	pop DWORD PTR [EBP - 12]
	mov EBX, EAX
	mov DWORD PTR [EBP - 16], EBX
	je _label71
	mov EBX, DWORD PTR [EBP - 8]
	mov DWORD PTR [EBP - 20], EBX
	mov EBX, DWORD PTR [EBP - 8]
	mov DWORD PTR [EBP - 24], EBX
	push DWORD PTR [EBP - 24]
	call _temp499
	pop DWORD PTR [EBP - 24]
	mov EBX, EAX
	mov DWORD PTR [EBP - 28], EBX
	push DWORD PTR [EBP - 28]
	call _temp500
	pop DWORD PTR [EBP - 28]
	mov EBX, EAX
	mov DWORD PTR [EBP - 32], EBX
	push DWORD PTR [EBP - 32]
	push DWORD PTR [EBP - 20]
	call _temp501
	pop DWORD PTR [EBP - 20]
	pop DWORD PTR [EBP - 32]
	mov EBX, EAX
	mov DWORD PTR [EBP - 36], EBX
	mov EBX, DWORD PTR [EBP - 36]
	mov DWORD PTR [EBP - 40], EBX
	mov EBX, DWORD PTR [EBP - 8]
	mov DWORD PTR [EBP - 44], EBX
	mov EBX, DWORD PTR [EBP - 44]
	mov DWORD PTR [EBP - 4], EBX
	mov EBX, DWORD PTR [EBP - 8]
	mov DWORD PTR [EBP - 48], EBX
	push DWORD PTR [EBP - 48]
	call _temp499
	pop DWORD PTR [EBP - 48]
	mov EBX, EAX
	mov DWORD PTR [EBP - 52], EBX
	mov EBX, DWORD PTR [EBP - 52]
	mov DWORD PTR [EBP - 8], EBX
	jmp _label70
_label71:
	mov EBX, DWORD PTR [EBP - 4]
	mov DWORD PTR [EBP - 56], EBX
	mov EDX, DWORD PTR [EBP - 60]
	mov EDX, DWORD PTR [EBP + 8]
	mov EDX, DWORD PTR [EBP - 64]
	mov EBX, DWORD PTR [EBP - 60]
	mov EDX, DWORD PTR [EBX + 20]
	push DWORD PTR [EBP - 64]
	push DWORD PTR [EBP - 56]
	call _temp497
	pop DWORD PTR [EBP - 56]
	pop DWORD PTR [EBP - 64]
	mov EBX, EAX
	mov DWORD PTR [EBP - 68], EBX
	mov EBX, DWORD PTR [EBP - 68]
	mov DWORD PTR [EBP - 40], EBX
	mov EBX, DWORD PTR [EBP - 4]
	mov DWORD PTR [EBP - 72], EBX
	mov EBX, 0
	mov DWORD PTR [EBP - 76], EBX
	push DWORD PTR [EBP - 76]
	push DWORD PTR [EBP - 72]
	call _temp504
	pop DWORD PTR [EBP - 72]
	pop DWORD PTR [EBP - 76]
	mov EBX, EAX
	mov DWORD PTR [EBP - 80], EBX
	mov EBX, DWORD PTR [EBP - 80]
	mov DWORD PTR [EBP - 40], EBX
	mov EBX, 1
	mov DWORD PTR [EBP - 84], EBX
	mov EBX, DWORD PTR [EBP - 84]
	mov EAX, EBX
	mov EBX, DWORD PTR [ESP-32]
	mov EAX, EBX
	add ESP, 84
	popad
	pop ebp
	.cfi_restore 5
	.cfi_def_cfa 4, 4
	ret
	.cfi_endproc

_temp512:
	.cfi_startproc
	push ebp
	.cfi_def_cfa_offset 8
	.cfi_offset 5, -8
	mov ebp, esp
	.cfi_def_cfa_register 5
	pushad
	mov EBX, ESP
	mov EBP, EBX
	sub ESP, 120
	mov EDX, DWORD PTR [EBP - 4]
	mov EDX, DWORD PTR [EBP + 12]
	mov EDX, DWORD PTR [EBP - 8]
	mov EDX, DWORD PTR [EBP + 8]
	mov EBX, DWORD PTR [EBP - 8]
	mov DWORD PTR [EBP - 12], EBX
	mov EBX, 1
	mov DWORD PTR [EBP - 16], EBX
	mov EBX, DWORD PTR [EBP - 16]
	mov DWORD PTR [EBP - 20], EBX
	mov EBX, 0
	mov DWORD PTR [EBP - 24], EBX
	mov EBX, DWORD PTR [EBP - 24]
	mov DWORD PTR [EBP - 28], EBX
_label72:
	mov EBX, DWORD PTR [EBP - 20]
	mov DWORD PTR [EBP - 32], EBX
	je _label73
	mov EBX, DWORD PTR [EBP - 12]
	mov DWORD PTR [EBP - 36], EBX
	push DWORD PTR [EBP - 36]
	call _temp500
	pop DWORD PTR [EBP - 36]
	mov EBX, EAX
	mov DWORD PTR [EBP - 40], EBX
	mov EBX, DWORD PTR [EBP - 40]
	mov DWORD PTR [EBP - 44], EBX
	mov EBX, DWORD PTR [EBP - 4]
	mov DWORD PTR [EBP - 48], EBX
	mov EBX, DWORD PTR [EBP - 44]
	mov DWORD PTR [EBP - 52], EBX
	mov EAX, DWORD PTR [EBP - 48]
	mov EBX, DWORD PTR [EBP - 52]
	cmp EAX, EBX
	setl AL
	mov DWORD PTR [EBP - 56], EAX
	je _label74
	mov EBX, DWORD PTR [EBP - 12]
	mov DWORD PTR [EBP - 60], EBX
	push DWORD PTR [EBP - 60]
	call _temp503
	pop DWORD PTR [EBP - 60]
	mov EBX, EAX
	mov DWORD PTR [EBP - 64], EBX
	je _label75
	mov EBX, DWORD PTR [EBP - 12]
	mov DWORD PTR [EBP - 68], EBX
	push DWORD PTR [EBP - 68]
	call _temp499
	pop DWORD PTR [EBP - 68]
	mov EBX, EAX
	mov DWORD PTR [EBP - 72], EBX
	mov EBX, DWORD PTR [EBP - 72]
	mov DWORD PTR [EBP - 12], EBX
	jmp _label76
_label75:
	mov EBX, 0
	mov DWORD PTR [EBP - 76], EBX
	mov EBX, DWORD PTR [EBP - 76]
	mov DWORD PTR [EBP - 20], EBX
_label76:
	jmp _label77
_label74:
	mov EBX, DWORD PTR [EBP - 44]
	mov DWORD PTR [EBP - 80], EBX
	mov EBX, DWORD PTR [EBP - 4]
	mov DWORD PTR [EBP - 84], EBX
	mov EAX, DWORD PTR [EBP - 80]
	mov EBX, DWORD PTR [EBP - 84]
	cmp EAX, EBX
	setl AL
	mov DWORD PTR [EBP - 88], EAX
	je _label78
	mov EBX, DWORD PTR [EBP - 12]
	mov DWORD PTR [EBP - 92], EBX
	push DWORD PTR [EBP - 92]
	call _temp502
	pop DWORD PTR [EBP - 92]
	mov EBX, EAX
	mov DWORD PTR [EBP - 96], EBX
	je _label79
	mov EBX, DWORD PTR [EBP - 12]
	mov DWORD PTR [EBP - 100], EBX
	push DWORD PTR [EBP - 100]
	call _temp498
	pop DWORD PTR [EBP - 100]
	mov EBX, EAX
	mov DWORD PTR [EBP - 104], EBX
	mov EBX, DWORD PTR [EBP - 104]
	mov DWORD PTR [EBP - 12], EBX
	jmp _label80
_label79:
	mov EBX, 0
	mov DWORD PTR [EBP - 108], EBX
	mov EBX, DWORD PTR [EBP - 108]
	mov DWORD PTR [EBP - 20], EBX
_label80:
	jmp _label81
_label78:
	mov EBX, 1
	mov DWORD PTR [EBP - 112], EBX
	mov EBX, DWORD PTR [EBP - 112]
	mov DWORD PTR [EBP - 28], EBX
	mov EBX, 0
	mov DWORD PTR [EBP - 116], EBX
	mov EBX, DWORD PTR [EBP - 116]
	mov DWORD PTR [EBP - 20], EBX
_label81:
_label77:
	jmp _label72
_label73:
	mov EBX, DWORD PTR [EBP - 28]
	mov DWORD PTR [EBP - 120], EBX
	mov EBX, DWORD PTR [EBP - 120]
	mov EAX, EBX
	mov EBX, DWORD PTR [ESP-32]
	mov EAX, EBX
	add ESP, 120
	popad
	pop ebp
	.cfi_restore 5
	.cfi_def_cfa 4, 4
	ret
	.cfi_endproc

_temp513:
	.cfi_startproc
	push ebp
	.cfi_def_cfa_offset 8
	.cfi_offset 5, -8
	mov ebp, esp
	.cfi_def_cfa_register 5
	pushad
	mov EBX, ESP
	mov EBP, EBX
	sub ESP, 28
	mov EDX, DWORD PTR [EBP - 4]
	mov EDX, DWORD PTR [EBP + 8]
	mov EBX, DWORD PTR [EBP - 4]
	mov DWORD PTR [EBP - 8], EBX
	mov EDX, DWORD PTR [EBP - 12]
	mov EDX, DWORD PTR [EBP + 8]
	mov EBX, DWORD PTR [EBP - 8]
	mov DWORD PTR [EBP - 16], EBX
	push DWORD PTR [EBP - 16]
	push DWORD PTR [EBP - 12]
	call _temp514
	pop DWORD PTR [EBP - 12]
	pop DWORD PTR [EBP - 16]
	mov EBX, EAX
	mov DWORD PTR [EBP - 20], EBX
	mov EBX, DWORD PTR [EBP - 20]
	mov DWORD PTR [EBP - 24], EBX
	mov EBX, 1
	mov DWORD PTR [EBP - 28], EBX
	mov EBX, DWORD PTR [EBP - 28]
	mov EAX, EBX
	mov EBX, DWORD PTR [ESP-32]
	mov EAX, EBX
	add ESP, 28
	popad
	pop ebp
	.cfi_restore 5
	.cfi_def_cfa 4, 4
	ret
	.cfi_endproc

_temp514:
	.cfi_startproc
	push ebp
	.cfi_def_cfa_offset 8
	.cfi_offset 5, -8
	mov ebp, esp
	.cfi_def_cfa_register 5
	pushad
	mov EBX, ESP
	mov EBP, EBX
	sub ESP, 76
	mov EDX, DWORD PTR [EBP - 4]
	mov EDX, DWORD PTR [EBP + 12]
	mov EBX, DWORD PTR [EBP - 4]
	mov DWORD PTR [EBP - 8], EBX
	push DWORD PTR [EBP - 8]
	call _temp503
	pop DWORD PTR [EBP - 8]
	mov EBX, EAX
	mov DWORD PTR [EBP - 12], EBX
	je _label82
	mov EDX, DWORD PTR [EBP - 16]
	mov EDX, DWORD PTR [EBP + 8]
	mov EBX, DWORD PTR [EBP - 4]
	mov DWORD PTR [EBP - 20], EBX
	push DWORD PTR [EBP - 20]
	call _temp499
	pop DWORD PTR [EBP - 20]
	mov EBX, EAX
	mov DWORD PTR [EBP - 24], EBX
	push DWORD PTR [EBP - 24]
	push DWORD PTR [EBP - 16]
	call _temp514
	pop DWORD PTR [EBP - 16]
	pop DWORD PTR [EBP - 24]
	mov EBX, EAX
	mov DWORD PTR [EBP - 28], EBX
	mov EBX, DWORD PTR [EBP - 28]
	mov DWORD PTR [EBP - 32], EBX
	jmp _label83
_label82:
	mov EBX, 1
	mov DWORD PTR [EBP - 36], EBX
	mov EBX, DWORD PTR [EBP - 36]
	mov DWORD PTR [EBP - 32], EBX
_label83:
	mov EBX, DWORD PTR [EBP - 4]
	mov DWORD PTR [EBP - 40], EBX
	push DWORD PTR [EBP - 40]
	call _temp500
	pop DWORD PTR [EBP - 40]
	mov EBX, EAX
	mov DWORD PTR [EBP - 44], EBX
	mov EAX, DWORD PTR [EBP - 44]
	mov DWORD PTR [ESP+4], EAX
	mov DWORD PTR [ESP], OFFSET FLAT:LC0
	call _printf
	mov EBX, DWORD PTR [EBP - 4]
	mov DWORD PTR [EBP - 48], EBX
	push DWORD PTR [EBP - 48]
	call _temp502
	pop DWORD PTR [EBP - 48]
	mov EBX, EAX
	mov DWORD PTR [EBP - 52], EBX
	je _label84
	mov EDX, DWORD PTR [EBP - 56]
	mov EDX, DWORD PTR [EBP + 8]
	mov EBX, DWORD PTR [EBP - 4]
	mov DWORD PTR [EBP - 60], EBX
	push DWORD PTR [EBP - 60]
	call _temp498
	pop DWORD PTR [EBP - 60]
	mov EBX, EAX
	mov DWORD PTR [EBP - 64], EBX
	push DWORD PTR [EBP - 64]
	push DWORD PTR [EBP - 56]
	call _temp514
	pop DWORD PTR [EBP - 56]
	pop DWORD PTR [EBP - 64]
	mov EBX, EAX
	mov DWORD PTR [EBP - 68], EBX
	mov EBX, DWORD PTR [EBP - 68]
	mov DWORD PTR [EBP - 32], EBX
	jmp _label85
_label84:
	mov EBX, 1
	mov DWORD PTR [EBP - 72], EBX
	mov EBX, DWORD PTR [EBP - 72]
	mov DWORD PTR [EBP - 32], EBX
_label85:
	mov EBX, 1
	mov DWORD PTR [EBP - 76], EBX
	mov EBX, DWORD PTR [EBP - 76]
	mov EAX, EBX
	mov EBX, DWORD PTR [ESP-32]
	mov EAX, EBX
	add ESP, 76
	popad
	pop ebp
	.cfi_restore 5
	.cfi_def_cfa 4, 4
	ret
	.cfi_endproc


	.ident "Error 404: Compiler Not Found"
	.def _malloc; .scl 2; .type 32; .endef
	.def _printf; .scl 2; .type 32; .endef
