	.file "sampleCode/TreeVisitor.java"
	.def ___main; .scl 2; .type 32; .endef
	.intel_syntax noprefix
	.section .rdata, "dr"
LC0:
	.ascii "%d\0"
	.text
	.globl _main
	.def _main; .scl 2; .type 32; .endef
_main:
	.cfi_startproc
	push ebp
	.cfi_def_cfa_offset 8
	.cfi_offset 5, -8
	mov ebp, esp
	.cfi_def_cfa_register 5
	and esp, -16
	sub esp, 16
	call ___main
	pushad
	mov EBX, ESP
	mov EBP, EBX
	sub ESP, 8
	mov EBX, 0
	mov DWORD PTR [ESP], EBX
	call _malloc
	mov DWORD PTR [EBP - 4], EAX
	push DWORD PTR [EBP - 4]
	call _temp1692
	pop DWORD PTR [EBP - 4]
	mov EBX, EAX
	mov DWORD PTR [EBP - 8], EBX
	mov EAX, DWORD PTR [EBP - 8]
	mov DWORD PTR [ESP+4], EAX
	mov DWORD PTR [ESP], OFFSET FLAT:LC0
	call _printf
	mov EBX, DWORD PTR [ESP-32]
	mov EAX, EBX
	add ESP, 8
	popad
	leave
	.cfi_restore 5
	.cfi_def_cfa 4, 4
	ret
	.cfi_endproc

_temp1692:
	.cfi_startproc
	push ebp
	.cfi_def_cfa_offset 8
	.cfi_offset 5, -8
	mov ebp, esp
	.cfi_def_cfa_register 5
	pushad
	mov EBX, ESP
	mov EBP, EBX
	sub ESP, 260
	mov EBX, 24
	mov DWORD PTR [ESP], EBX
	call _malloc
	mov DWORD PTR [EBP - 4], EAX
	mov EBX, DWORD PTR [EBP - 4]
	mov DWORD PTR [EBP - 8], EBX
	mov EBX, DWORD PTR [EBP - 8]
	mov DWORD PTR [EBP - 12], EBX
	mov EBX, 16
	mov DWORD PTR [EBP - 16], EBX
	push DWORD PTR [EBP - 16]
	push DWORD PTR [EBP - 12]
	call _temp1693
	pop DWORD PTR [EBP - 12]
	pop DWORD PTR [EBP - 16]
	mov EBX, EAX
	mov DWORD PTR [EBP - 20], EBX
	mov EBX, DWORD PTR [EBP - 20]
	mov DWORD PTR [EBP - 24], EBX
	mov EBX, DWORD PTR [EBP - 8]
	mov DWORD PTR [EBP - 28], EBX
	push DWORD PTR [EBP - 28]
	call _temp1711
	pop DWORD PTR [EBP - 28]
	mov EBX, EAX
	mov DWORD PTR [EBP - 32], EBX
	mov EBX, DWORD PTR [EBP - 32]
	mov DWORD PTR [EBP - 24], EBX
	mov EBX, 100000000
	mov DWORD PTR [EBP - 36], EBX
	mov EAX, DWORD PTR [EBP - 36]
	mov DWORD PTR [ESP+4], EAX
	mov DWORD PTR [ESP], OFFSET FLAT:LC0
	call _printf
	mov EBX, DWORD PTR [EBP - 8]
	mov DWORD PTR [EBP - 40], EBX
	mov EBX, 8
	mov DWORD PTR [EBP - 44], EBX
	push DWORD PTR [EBP - 44]
	push DWORD PTR [EBP - 40]
	call _temp1705
	pop DWORD PTR [EBP - 40]
	pop DWORD PTR [EBP - 44]
	mov EBX, EAX
	mov DWORD PTR [EBP - 48], EBX
	mov EBX, DWORD PTR [EBP - 48]
	mov DWORD PTR [EBP - 24], EBX
	mov EBX, DWORD PTR [EBP - 8]
	mov DWORD PTR [EBP - 52], EBX
	mov EBX, 24
	mov DWORD PTR [EBP - 56], EBX
	push DWORD PTR [EBP - 56]
	push DWORD PTR [EBP - 52]
	call _temp1705
	pop DWORD PTR [EBP - 52]
	pop DWORD PTR [EBP - 56]
	mov EBX, EAX
	mov DWORD PTR [EBP - 60], EBX
	mov EBX, DWORD PTR [EBP - 60]
	mov DWORD PTR [EBP - 24], EBX
	mov EBX, DWORD PTR [EBP - 8]
	mov DWORD PTR [EBP - 64], EBX
	mov EBX, 4
	mov DWORD PTR [EBP - 68], EBX
	push DWORD PTR [EBP - 68]
	push DWORD PTR [EBP - 64]
	call _temp1705
	pop DWORD PTR [EBP - 64]
	pop DWORD PTR [EBP - 68]
	mov EBX, EAX
	mov DWORD PTR [EBP - 72], EBX
	mov EBX, DWORD PTR [EBP - 72]
	mov DWORD PTR [EBP - 24], EBX
	mov EBX, DWORD PTR [EBP - 8]
	mov DWORD PTR [EBP - 76], EBX
	mov EBX, 12
	mov DWORD PTR [EBP - 80], EBX
	push DWORD PTR [EBP - 80]
	push DWORD PTR [EBP - 76]
	call _temp1705
	pop DWORD PTR [EBP - 76]
	pop DWORD PTR [EBP - 80]
	mov EBX, EAX
	mov DWORD PTR [EBP - 84], EBX
	mov EBX, DWORD PTR [EBP - 84]
	mov DWORD PTR [EBP - 24], EBX
	mov EBX, DWORD PTR [EBP - 8]
	mov DWORD PTR [EBP - 88], EBX
	mov EBX, 20
	mov DWORD PTR [EBP - 92], EBX
	push DWORD PTR [EBP - 92]
	push DWORD PTR [EBP - 88]
	call _temp1705
	pop DWORD PTR [EBP - 88]
	pop DWORD PTR [EBP - 92]
	mov EBX, EAX
	mov DWORD PTR [EBP - 96], EBX
	mov EBX, DWORD PTR [EBP - 96]
	mov DWORD PTR [EBP - 24], EBX
	mov EBX, DWORD PTR [EBP - 8]
	mov DWORD PTR [EBP - 100], EBX
	mov EBX, 28
	mov DWORD PTR [EBP - 104], EBX
	push DWORD PTR [EBP - 104]
	push DWORD PTR [EBP - 100]
	call _temp1705
	pop DWORD PTR [EBP - 100]
	pop DWORD PTR [EBP - 104]
	mov EBX, EAX
	mov DWORD PTR [EBP - 108], EBX
	mov EBX, DWORD PTR [EBP - 108]
	mov DWORD PTR [EBP - 24], EBX
	mov EBX, DWORD PTR [EBP - 8]
	mov DWORD PTR [EBP - 112], EBX
	mov EBX, 14
	mov DWORD PTR [EBP - 116], EBX
	push DWORD PTR [EBP - 116]
	push DWORD PTR [EBP - 112]
	call _temp1705
	pop DWORD PTR [EBP - 112]
	pop DWORD PTR [EBP - 116]
	mov EBX, EAX
	mov DWORD PTR [EBP - 120], EBX
	mov EBX, DWORD PTR [EBP - 120]
	mov DWORD PTR [EBP - 24], EBX
	mov EBX, DWORD PTR [EBP - 8]
	mov DWORD PTR [EBP - 124], EBX
	push DWORD PTR [EBP - 124]
	call _temp1711
	pop DWORD PTR [EBP - 124]
	mov EBX, EAX
	mov DWORD PTR [EBP - 128], EBX
	mov EBX, DWORD PTR [EBP - 128]
	mov DWORD PTR [EBP - 24], EBX
	mov EBX, 100000000
	mov DWORD PTR [EBP - 132], EBX
	mov EAX, DWORD PTR [EBP - 132]
	mov DWORD PTR [ESP+4], EAX
	mov DWORD PTR [ESP], OFFSET FLAT:LC0
	call _printf
	mov EBX, 8
	mov DWORD PTR [ESP], EBX
	call _malloc
	mov DWORD PTR [EBP - 136], EAX
	mov EBX, DWORD PTR [EBP - 136]
	mov DWORD PTR [EBP - 140], EBX
	mov EBX, 50000000
	mov DWORD PTR [EBP - 144], EBX
	mov EAX, DWORD PTR [EBP - 144]
	mov DWORD PTR [ESP+4], EAX
	mov DWORD PTR [ESP], OFFSET FLAT:LC0
	call _printf
	mov EBX, DWORD PTR [EBP - 8]
	mov DWORD PTR [EBP - 148], EBX
	mov EBX, DWORD PTR [EBP - 140]
	mov DWORD PTR [EBP - 152], EBX
	push DWORD PTR [EBP - 152]
	push DWORD PTR [EBP - 148]
	call _temp1713
	pop DWORD PTR [EBP - 148]
	pop DWORD PTR [EBP - 152]
	mov EBX, EAX
	mov DWORD PTR [EBP - 156], EBX
	mov EBX, DWORD PTR [EBP - 156]
	mov DWORD PTR [EBP - 160], EBX
	mov EBX, 100000000
	mov DWORD PTR [EBP - 164], EBX
	mov EAX, DWORD PTR [EBP - 164]
	mov DWORD PTR [ESP+4], EAX
	mov DWORD PTR [ESP], OFFSET FLAT:LC0
	call _printf
	mov EBX, DWORD PTR [EBP - 8]
	mov DWORD PTR [EBP - 168], EBX
	mov EBX, 24
	mov DWORD PTR [EBP - 172], EBX
	push DWORD PTR [EBP - 172]
	push DWORD PTR [EBP - 168]
	call _temp1710
	pop DWORD PTR [EBP - 168]
	pop DWORD PTR [EBP - 172]
	mov EBX, EAX
	mov DWORD PTR [EBP - 176], EBX
	mov EAX, DWORD PTR [EBP - 176]
	mov DWORD PTR [ESP+4], EAX
	mov DWORD PTR [ESP], OFFSET FLAT:LC0
	call _printf
	mov EBX, DWORD PTR [EBP - 8]
	mov DWORD PTR [EBP - 180], EBX
	mov EBX, 12
	mov DWORD PTR [EBP - 184], EBX
	push DWORD PTR [EBP - 184]
	push DWORD PTR [EBP - 180]
	call _temp1710
	pop DWORD PTR [EBP - 180]
	pop DWORD PTR [EBP - 184]
	mov EBX, EAX
	mov DWORD PTR [EBP - 188], EBX
	mov EAX, DWORD PTR [EBP - 188]
	mov DWORD PTR [ESP+4], EAX
	mov DWORD PTR [ESP], OFFSET FLAT:LC0
	call _printf
	mov EBX, DWORD PTR [EBP - 8]
	mov DWORD PTR [EBP - 192], EBX
	mov EBX, 16
	mov DWORD PTR [EBP - 196], EBX
	push DWORD PTR [EBP - 196]
	push DWORD PTR [EBP - 192]
	call _temp1710
	pop DWORD PTR [EBP - 192]
	pop DWORD PTR [EBP - 196]
	mov EBX, EAX
	mov DWORD PTR [EBP - 200], EBX
	mov EAX, DWORD PTR [EBP - 200]
	mov DWORD PTR [ESP+4], EAX
	mov DWORD PTR [ESP], OFFSET FLAT:LC0
	call _printf
	mov EBX, DWORD PTR [EBP - 8]
	mov DWORD PTR [EBP - 204], EBX
	mov EBX, 50
	mov DWORD PTR [EBP - 208], EBX
	push DWORD PTR [EBP - 208]
	push DWORD PTR [EBP - 204]
	call _temp1710
	pop DWORD PTR [EBP - 204]
	pop DWORD PTR [EBP - 208]
	mov EBX, EAX
	mov DWORD PTR [EBP - 212], EBX
	mov EAX, DWORD PTR [EBP - 212]
	mov DWORD PTR [ESP+4], EAX
	mov DWORD PTR [ESP], OFFSET FLAT:LC0
	call _printf
	mov EBX, DWORD PTR [EBP - 8]
	mov DWORD PTR [EBP - 216], EBX
	mov EBX, 12
	mov DWORD PTR [EBP - 220], EBX
	push DWORD PTR [EBP - 220]
	push DWORD PTR [EBP - 216]
	call _temp1710
	pop DWORD PTR [EBP - 216]
	pop DWORD PTR [EBP - 220]
	mov EBX, EAX
	mov DWORD PTR [EBP - 224], EBX
	mov EAX, DWORD PTR [EBP - 224]
	mov DWORD PTR [ESP+4], EAX
	mov DWORD PTR [ESP], OFFSET FLAT:LC0
	call _printf
	mov EBX, DWORD PTR [EBP - 8]
	mov DWORD PTR [EBP - 228], EBX
	mov EBX, 12
	mov DWORD PTR [EBP - 232], EBX
	push DWORD PTR [EBP - 232]
	push DWORD PTR [EBP - 228]
	call _temp1706
	pop DWORD PTR [EBP - 228]
	pop DWORD PTR [EBP - 232]
	mov EBX, EAX
	mov DWORD PTR [EBP - 236], EBX
	mov EBX, DWORD PTR [EBP - 236]
	mov DWORD PTR [EBP - 24], EBX
	mov EBX, DWORD PTR [EBP - 8]
	mov DWORD PTR [EBP - 240], EBX
	push DWORD PTR [EBP - 240]
	call _temp1711
	pop DWORD PTR [EBP - 240]
	mov EBX, EAX
	mov DWORD PTR [EBP - 244], EBX
	mov EBX, DWORD PTR [EBP - 244]
	mov DWORD PTR [EBP - 24], EBX
	mov EBX, DWORD PTR [EBP - 8]
	mov DWORD PTR [EBP - 248], EBX
	mov EBX, 12
	mov DWORD PTR [EBP - 252], EBX
	push DWORD PTR [EBP - 252]
	push DWORD PTR [EBP - 248]
	call _temp1710
	pop DWORD PTR [EBP - 248]
	pop DWORD PTR [EBP - 252]
	mov EBX, EAX
	mov DWORD PTR [EBP - 256], EBX
	mov EAX, DWORD PTR [EBP - 256]
	mov DWORD PTR [ESP+4], EAX
	mov DWORD PTR [ESP], OFFSET FLAT:LC0
	call _printf
	mov EBX, 0
	mov DWORD PTR [EBP - 260], EBX
	mov EBX, DWORD PTR [EBP - 260]
	mov EAX, EBX
	mov EBX, DWORD PTR [ESP-32]
	mov EAX, EBX
	add ESP, 260
	popad
	pop ebp
	.cfi_restore 5
	.cfi_def_cfa 4, 4
	ret
	.cfi_endproc

_temp1693:
	.cfi_startproc
	push ebp
	.cfi_def_cfa_offset 8
	.cfi_offset 5, -8
	mov ebp, esp
	.cfi_def_cfa_register 5
	pushad
	mov EBX, ESP
	mov EBP, EBX
	sub ESP, 32
	mov EDX, DWORD PTR [EBP - 4]
	mov EDX, DWORD PTR [EBP + 12]
	mov EBX, DWORD PTR [EBP - 4]
	mov DWORD PTR [EBP - 8], EBX
	mov EDX, DWORD PTR [EBP - 12]
	mov EDX, DWORD PTR [EBP + 8]
	mov EDX, DWORD PTR [EBP - 8]
	mov EBX, DWORD PTR [EBP - 12]
	mov DWORD PTR [EBX + 8], EDX
	mov EBX, 0
	mov DWORD PTR [EBP - 16], EBX
	mov EDX, DWORD PTR [EBP - 20]
	mov EDX, DWORD PTR [EBP + 8]
	mov EDX, DWORD PTR [EBP - 16]
	mov EBX, DWORD PTR [EBP - 20]
	mov DWORD PTR [EBX + 12], EDX
	mov EBX, 0
	mov DWORD PTR [EBP - 24], EBX
	mov EDX, DWORD PTR [EBP - 28]
	mov EDX, DWORD PTR [EBP + 8]
	mov EDX, DWORD PTR [EBP - 24]
	mov EBX, DWORD PTR [EBP - 28]
	mov DWORD PTR [EBX + 16], EDX
	mov EBX, 1
	mov DWORD PTR [EBP - 32], EBX
	mov EBX, DWORD PTR [EBP - 32]
	mov EAX, EBX
	mov EBX, DWORD PTR [ESP-32]
	mov EAX, EBX
	add ESP, 32
	popad
	pop ebp
	.cfi_restore 5
	.cfi_def_cfa 4, 4
	ret
	.cfi_endproc

_temp1694:
	.cfi_startproc
	push ebp
	.cfi_def_cfa_offset 8
	.cfi_offset 5, -8
	mov ebp, esp
	.cfi_def_cfa_register 5
	pushad
	mov EBX, ESP
	mov EBP, EBX
	sub ESP, 16
	mov EDX, DWORD PTR [EBP - 4]
	mov EDX, DWORD PTR [EBP + 12]
	mov EBX, DWORD PTR [EBP - 4]
	mov DWORD PTR [EBP - 8], EBX
	mov EDX, DWORD PTR [EBP - 12]
	mov EDX, DWORD PTR [EBP + 8]
	mov EDX, DWORD PTR [EBP - 8]
	mov EBX, DWORD PTR [EBP - 12]
	mov DWORD PTR [EBX + 4], EDX
	mov EBX, 1
	mov DWORD PTR [EBP - 16], EBX
	mov EBX, DWORD PTR [EBP - 16]
	mov EAX, EBX
	mov EBX, DWORD PTR [ESP-32]
	mov EAX, EBX
	add ESP, 16
	popad
	pop ebp
	.cfi_restore 5
	.cfi_def_cfa 4, 4
	ret
	.cfi_endproc

_temp1695:
	.cfi_startproc
	push ebp
	.cfi_def_cfa_offset 8
	.cfi_offset 5, -8
	mov ebp, esp
	.cfi_def_cfa_register 5
	pushad
	mov EBX, ESP
	mov EBP, EBX
	sub ESP, 16
	mov EDX, DWORD PTR [EBP - 4]
	mov EDX, DWORD PTR [EBP + 12]
	mov EBX, DWORD PTR [EBP - 4]
	mov DWORD PTR [EBP - 8], EBX
	mov EDX, DWORD PTR [EBP - 12]
	mov EDX, DWORD PTR [EBP + 8]
	mov EDX, DWORD PTR [EBP - 8]
	mov EBX, DWORD PTR [EBP - 12]
	mov DWORD PTR [EBX + 0], EDX
	mov EBX, 1
	mov DWORD PTR [EBP - 16], EBX
	mov EBX, DWORD PTR [EBP - 16]
	mov EAX, EBX
	mov EBX, DWORD PTR [ESP-32]
	mov EAX, EBX
	add ESP, 16
	popad
	pop ebp
	.cfi_restore 5
	.cfi_def_cfa 4, 4
	ret
	.cfi_endproc

_temp1696:
	.cfi_startproc
	push ebp
	.cfi_def_cfa_offset 8
	.cfi_offset 5, -8
	mov ebp, esp
	.cfi_def_cfa_register 5
	pushad
	mov EBX, ESP
	mov EBP, EBX
	sub ESP, 8
	mov EDX, DWORD PTR [EBP - 4]
	mov EDX, DWORD PTR [EBP + 8]
	mov EDX, DWORD PTR [EBP - 8]
	mov EBX, DWORD PTR [EBP - 4]
	mov EDX, DWORD PTR [EBX + 4]
	mov EBX, DWORD PTR [EBP - 8]
	mov EAX, EBX
	mov EBX, DWORD PTR [ESP-32]
	mov EAX, EBX
	add ESP, 8
	popad
	pop ebp
	.cfi_restore 5
	.cfi_def_cfa 4, 4
	ret
	.cfi_endproc

_temp1697:
	.cfi_startproc
	push ebp
	.cfi_def_cfa_offset 8
	.cfi_offset 5, -8
	mov ebp, esp
	.cfi_def_cfa_register 5
	pushad
	mov EBX, ESP
	mov EBP, EBX
	sub ESP, 8
	mov EDX, DWORD PTR [EBP - 4]
	mov EDX, DWORD PTR [EBP + 8]
	mov EDX, DWORD PTR [EBP - 8]
	mov EBX, DWORD PTR [EBP - 4]
	mov EDX, DWORD PTR [EBX + 0]
	mov EBX, DWORD PTR [EBP - 8]
	mov EAX, EBX
	mov EBX, DWORD PTR [ESP-32]
	mov EAX, EBX
	add ESP, 8
	popad
	pop ebp
	.cfi_restore 5
	.cfi_def_cfa 4, 4
	ret
	.cfi_endproc

_temp1698:
	.cfi_startproc
	push ebp
	.cfi_def_cfa_offset 8
	.cfi_offset 5, -8
	mov ebp, esp
	.cfi_def_cfa_register 5
	pushad
	mov EBX, ESP
	mov EBP, EBX
	sub ESP, 8
	mov EDX, DWORD PTR [EBP - 4]
	mov EDX, DWORD PTR [EBP + 8]
	mov EDX, DWORD PTR [EBP - 8]
	mov EBX, DWORD PTR [EBP - 4]
	mov EDX, DWORD PTR [EBX + 8]
	mov EBX, DWORD PTR [EBP - 8]
	mov EAX, EBX
	mov EBX, DWORD PTR [ESP-32]
	mov EAX, EBX
	add ESP, 8
	popad
	pop ebp
	.cfi_restore 5
	.cfi_def_cfa 4, 4
	ret
	.cfi_endproc

_temp1699:
	.cfi_startproc
	push ebp
	.cfi_def_cfa_offset 8
	.cfi_offset 5, -8
	mov ebp, esp
	.cfi_def_cfa_register 5
	pushad
	mov EBX, ESP
	mov EBP, EBX
	sub ESP, 16
	mov EDX, DWORD PTR [EBP - 4]
	mov EDX, DWORD PTR [EBP + 12]
	mov EBX, DWORD PTR [EBP - 4]
	mov DWORD PTR [EBP - 8], EBX
	mov EDX, DWORD PTR [EBP - 12]
	mov EDX, DWORD PTR [EBP + 8]
	mov EDX, DWORD PTR [EBP - 8]
	mov EBX, DWORD PTR [EBP - 12]
	mov DWORD PTR [EBX + 8], EDX
	mov EBX, 1
	mov DWORD PTR [EBP - 16], EBX
	mov EBX, DWORD PTR [EBP - 16]
	mov EAX, EBX
	mov EBX, DWORD PTR [ESP-32]
	mov EAX, EBX
	add ESP, 16
	popad
	pop ebp
	.cfi_restore 5
	.cfi_def_cfa 4, 4
	ret
	.cfi_endproc

_temp1700:
	.cfi_startproc
	push ebp
	.cfi_def_cfa_offset 8
	.cfi_offset 5, -8
	mov ebp, esp
	.cfi_def_cfa_register 5
	pushad
	mov EBX, ESP
	mov EBP, EBX
	sub ESP, 8
	mov EDX, DWORD PTR [EBP - 4]
	mov EDX, DWORD PTR [EBP + 8]
	mov EDX, DWORD PTR [EBP - 8]
	mov EBX, DWORD PTR [EBP - 4]
	mov EDX, DWORD PTR [EBX + 16]
	mov EBX, DWORD PTR [EBP - 8]
	mov EAX, EBX
	mov EBX, DWORD PTR [ESP-32]
	mov EAX, EBX
	add ESP, 8
	popad
	pop ebp
	.cfi_restore 5
	.cfi_def_cfa 4, 4
	ret
	.cfi_endproc

_temp1701:
	.cfi_startproc
	push ebp
	.cfi_def_cfa_offset 8
	.cfi_offset 5, -8
	mov ebp, esp
	.cfi_def_cfa_register 5
	pushad
	mov EBX, ESP
	mov EBP, EBX
	sub ESP, 8
	mov EDX, DWORD PTR [EBP - 4]
	mov EDX, DWORD PTR [EBP + 8]
	mov EDX, DWORD PTR [EBP - 8]
	mov EBX, DWORD PTR [EBP - 4]
	mov EDX, DWORD PTR [EBX + 12]
	mov EBX, DWORD PTR [EBP - 8]
	mov EAX, EBX
	mov EBX, DWORD PTR [ESP-32]
	mov EAX, EBX
	add ESP, 8
	popad
	pop ebp
	.cfi_restore 5
	.cfi_def_cfa 4, 4
	ret
	.cfi_endproc

_temp1702:
	.cfi_startproc
	push ebp
	.cfi_def_cfa_offset 8
	.cfi_offset 5, -8
	mov ebp, esp
	.cfi_def_cfa_register 5
	pushad
	mov EBX, ESP
	mov EBP, EBX
	sub ESP, 16
	mov EDX, DWORD PTR [EBP - 4]
	mov EDX, DWORD PTR [EBP + 12]
	mov EBX, DWORD PTR [EBP - 4]
	mov DWORD PTR [EBP - 8], EBX
	mov EDX, DWORD PTR [EBP - 12]
	mov EDX, DWORD PTR [EBP + 8]
	mov EDX, DWORD PTR [EBP - 8]
	mov EBX, DWORD PTR [EBP - 12]
	mov DWORD PTR [EBX + 12], EDX
	mov EBX, 1
	mov DWORD PTR [EBP - 16], EBX
	mov EBX, DWORD PTR [EBP - 16]
	mov EAX, EBX
	mov EBX, DWORD PTR [ESP-32]
	mov EAX, EBX
	add ESP, 16
	popad
	pop ebp
	.cfi_restore 5
	.cfi_def_cfa 4, 4
	ret
	.cfi_endproc

_temp1703:
	.cfi_startproc
	push ebp
	.cfi_def_cfa_offset 8
	.cfi_offset 5, -8
	mov ebp, esp
	.cfi_def_cfa_register 5
	pushad
	mov EBX, ESP
	mov EBP, EBX
	sub ESP, 16
	mov EDX, DWORD PTR [EBP - 4]
	mov EDX, DWORD PTR [EBP + 12]
	mov EBX, DWORD PTR [EBP - 4]
	mov DWORD PTR [EBP - 8], EBX
	mov EDX, DWORD PTR [EBP - 12]
	mov EDX, DWORD PTR [EBP + 8]
	mov EDX, DWORD PTR [EBP - 8]
	mov EBX, DWORD PTR [EBP - 12]
	mov DWORD PTR [EBX + 16], EDX
	mov EBX, 1
	mov DWORD PTR [EBP - 16], EBX
	mov EBX, DWORD PTR [EBP - 16]
	mov EAX, EBX
	mov EBX, DWORD PTR [ESP-32]
	mov EAX, EBX
	add ESP, 16
	popad
	pop ebp
	.cfi_restore 5
	.cfi_def_cfa 4, 4
	ret
	.cfi_endproc

_temp1704:
	.cfi_startproc
	push ebp
	.cfi_def_cfa_offset 8
	.cfi_offset 5, -8
	mov ebp, esp
	.cfi_def_cfa_register 5
	pushad
	mov EBX, ESP
	mov EBP, EBX
	sub ESP, 76
	mov EDX, DWORD PTR [EBP - 4]
	mov EDX, DWORD PTR [EBP + 16]
	mov EDX, DWORD PTR [EBP - 8]
	mov EDX, DWORD PTR [EBP + 12]
	mov EBX, 0
	mov DWORD PTR [EBP - 12], EBX
	mov EBX, DWORD PTR [EBP - 12]
	mov DWORD PTR [EBP - 16], EBX
	mov EBX, DWORD PTR [EBP - 8]
	mov DWORD PTR [EBP - 20], EBX
	mov EBX, 1
	mov DWORD PTR [EBP - 24], EBX
	mov EAX, DWORD PTR [EBP - 20]
	mov EBX, DWORD PTR [EBP - 24]
	add EAX, EBX
	mov DWORD PTR [EBP - 28], EAX
	mov EBX, DWORD PTR [EBP - 28]
	mov DWORD PTR [EBP - 32], EBX
	mov EBX, DWORD PTR [EBP - 4]
	mov DWORD PTR [EBP - 36], EBX
	mov EBX, DWORD PTR [EBP - 8]
	mov DWORD PTR [EBP - 40], EBX
	mov EAX, DWORD PTR [EBP - 36]
	mov EBX, DWORD PTR [EBP - 40]
	cmp EAX, EBX
	setl AL
	mov DWORD PTR [EBP - 44], EAX
	je _label150
	mov EBX, 0
	mov DWORD PTR [EBP - 48], EBX
	mov EBX, DWORD PTR [EBP - 48]
	mov DWORD PTR [EBP - 16], EBX
	jmp _label151
_label150:
	mov EBX, DWORD PTR [EBP - 4]
	mov DWORD PTR [EBP - 52], EBX
	mov EBX, DWORD PTR [EBP - 32]
	mov DWORD PTR [EBP - 56], EBX
	mov EAX, DWORD PTR [EBP - 52]
	mov EBX, DWORD PTR [EBP - 56]
	cmp EAX, EBX
	setl AL
	mov DWORD PTR [EBP - 60], EAX
	mov EBX, DWORD PTR [EBP - 60]
	not EAX
	mov DWORD PTR [EBP - 64], EAX
	je _label152
	mov EBX, 0
	mov DWORD PTR [EBP - 68], EBX
	mov EBX, DWORD PTR [EBP - 68]
	mov DWORD PTR [EBP - 16], EBX
	jmp _label153
_label152:
	mov EBX, 1
	mov DWORD PTR [EBP - 72], EBX
	mov EBX, DWORD PTR [EBP - 72]
	mov DWORD PTR [EBP - 16], EBX
_label153:
_label151:
	mov EBX, DWORD PTR [EBP - 16]
	mov DWORD PTR [EBP - 76], EBX
	mov EBX, DWORD PTR [EBP - 76]
	mov EAX, EBX
	mov EBX, DWORD PTR [ESP-32]
	mov EAX, EBX
	add ESP, 76
	popad
	pop ebp
	.cfi_restore 5
	.cfi_def_cfa 4, 4
	ret
	.cfi_endproc

_temp1705:
	.cfi_startproc
	push ebp
	.cfi_def_cfa_offset 8
	.cfi_offset 5, -8
	mov ebp, esp
	.cfi_def_cfa_register 5
	pushad
	mov EBX, ESP
	mov EBP, EBX
	sub ESP, 164
	mov EDX, DWORD PTR [EBP - 4]
	mov EDX, DWORD PTR [EBP + 12]
	mov EBX, 24
	mov DWORD PTR [ESP], EBX
	call _malloc
	mov DWORD PTR [EBP - 8], EAX
	mov EBX, DWORD PTR [EBP - 8]
	mov DWORD PTR [EBP - 12], EBX
	mov EBX, DWORD PTR [EBP - 12]
	mov DWORD PTR [EBP - 16], EBX
	mov EBX, DWORD PTR [EBP - 4]
	mov DWORD PTR [EBP - 20], EBX
	push DWORD PTR [EBP - 20]
	push DWORD PTR [EBP - 16]
	call _temp1693
	pop DWORD PTR [EBP - 16]
	pop DWORD PTR [EBP - 20]
	mov EBX, EAX
	mov DWORD PTR [EBP - 24], EBX
	mov EBX, DWORD PTR [EBP - 24]
	mov DWORD PTR [EBP - 28], EBX
	mov EDX, DWORD PTR [EBP - 32]
	mov EDX, DWORD PTR [EBP + 8]
	mov EBX, DWORD PTR [EBP - 32]
	mov DWORD PTR [EBP - 36], EBX
	mov EBX, 1
	mov DWORD PTR [EBP - 40], EBX
	mov EBX, DWORD PTR [EBP - 40]
	mov DWORD PTR [EBP - 44], EBX
_label154:
	mov EBX, DWORD PTR [EBP - 44]
	mov DWORD PTR [EBP - 48], EBX
	je _label155
	mov EBX, DWORD PTR [EBP - 36]
	mov DWORD PTR [EBP - 52], EBX
	push DWORD PTR [EBP - 52]
	call _temp1698
	pop DWORD PTR [EBP - 52]
	mov EBX, EAX
	mov DWORD PTR [EBP - 56], EBX
	mov EBX, DWORD PTR [EBP - 56]
	mov DWORD PTR [EBP - 60], EBX
	mov EBX, DWORD PTR [EBP - 4]
	mov DWORD PTR [EBP - 64], EBX
	mov EBX, DWORD PTR [EBP - 60]
	mov DWORD PTR [EBP - 68], EBX
	mov EAX, DWORD PTR [EBP - 64]
	mov EBX, DWORD PTR [EBP - 68]
	cmp EAX, EBX
	setl AL
	mov DWORD PTR [EBP - 72], EAX
	je _label156
	mov EBX, DWORD PTR [EBP - 36]
	mov DWORD PTR [EBP - 76], EBX
	push DWORD PTR [EBP - 76]
	call _temp1701
	pop DWORD PTR [EBP - 76]
	mov EBX, EAX
	mov DWORD PTR [EBP - 80], EBX
	je _label157
	mov EBX, DWORD PTR [EBP - 36]
	mov DWORD PTR [EBP - 84], EBX
	push DWORD PTR [EBP - 84]
	call _temp1697
	pop DWORD PTR [EBP - 84]
	mov EBX, EAX
	mov DWORD PTR [EBP - 88], EBX
	mov EBX, DWORD PTR [EBP - 88]
	mov DWORD PTR [EBP - 36], EBX
	jmp _label158
_label157:
	mov EBX, 0
	mov DWORD PTR [EBP - 92], EBX
	mov EBX, DWORD PTR [EBP - 92]
	mov DWORD PTR [EBP - 44], EBX
	mov EBX, DWORD PTR [EBP - 36]
	mov DWORD PTR [EBP - 96], EBX
	mov EBX, 1
	mov DWORD PTR [EBP - 100], EBX
	push DWORD PTR [EBP - 100]
	push DWORD PTR [EBP - 96]
	call _temp1702
	pop DWORD PTR [EBP - 96]
	pop DWORD PTR [EBP - 100]
	mov EBX, EAX
	mov DWORD PTR [EBP - 104], EBX
	mov EBX, DWORD PTR [EBP - 104]
	mov DWORD PTR [EBP - 28], EBX
	mov EBX, DWORD PTR [EBP - 36]
	mov DWORD PTR [EBP - 108], EBX
	mov EBX, DWORD PTR [EBP - 12]
	mov DWORD PTR [EBP - 112], EBX
	push DWORD PTR [EBP - 112]
	push DWORD PTR [EBP - 108]
	call _temp1695
	pop DWORD PTR [EBP - 108]
	pop DWORD PTR [EBP - 112]
	mov EBX, EAX
	mov DWORD PTR [EBP - 116], EBX
	mov EBX, DWORD PTR [EBP - 116]
	mov DWORD PTR [EBP - 28], EBX
_label158:
	jmp _label159
_label156:
	mov EBX, DWORD PTR [EBP - 36]
	mov DWORD PTR [EBP - 120], EBX
	push DWORD PTR [EBP - 120]
	call _temp1700
	pop DWORD PTR [EBP - 120]
	mov EBX, EAX
	mov DWORD PTR [EBP - 124], EBX
	je _label160
	mov EBX, DWORD PTR [EBP - 36]
	mov DWORD PTR [EBP - 128], EBX
	push DWORD PTR [EBP - 128]
	call _temp1696
	pop DWORD PTR [EBP - 128]
	mov EBX, EAX
	mov DWORD PTR [EBP - 132], EBX
	mov EBX, DWORD PTR [EBP - 132]
	mov DWORD PTR [EBP - 36], EBX
	jmp _label161
_label160:
	mov EBX, 0
	mov DWORD PTR [EBP - 136], EBX
	mov EBX, DWORD PTR [EBP - 136]
	mov DWORD PTR [EBP - 44], EBX
	mov EBX, DWORD PTR [EBP - 36]
	mov DWORD PTR [EBP - 140], EBX
	mov EBX, 1
	mov DWORD PTR [EBP - 144], EBX
	push DWORD PTR [EBP - 144]
	push DWORD PTR [EBP - 140]
	call _temp1703
	pop DWORD PTR [EBP - 140]
	pop DWORD PTR [EBP - 144]
	mov EBX, EAX
	mov DWORD PTR [EBP - 148], EBX
	mov EBX, DWORD PTR [EBP - 148]
	mov DWORD PTR [EBP - 28], EBX
	mov EBX, DWORD PTR [EBP - 36]
	mov DWORD PTR [EBP - 152], EBX
	mov EBX, DWORD PTR [EBP - 12]
	mov DWORD PTR [EBP - 156], EBX
	push DWORD PTR [EBP - 156]
	push DWORD PTR [EBP - 152]
	call _temp1694
	pop DWORD PTR [EBP - 152]
	pop DWORD PTR [EBP - 156]
	mov EBX, EAX
	mov DWORD PTR [EBP - 160], EBX
	mov EBX, DWORD PTR [EBP - 160]
	mov DWORD PTR [EBP - 28], EBX
_label161:
_label159:
	jmp _label154
_label155:
	mov EBX, 1
	mov DWORD PTR [EBP - 164], EBX
	mov EBX, DWORD PTR [EBP - 164]
	mov EAX, EBX
	mov EBX, DWORD PTR [ESP-32]
	mov EAX, EBX
	add ESP, 164
	popad
	pop ebp
	.cfi_restore 5
	.cfi_def_cfa 4, 4
	ret
	.cfi_endproc

_temp1706:
	.cfi_startproc
	push ebp
	.cfi_def_cfa_offset 8
	.cfi_offset 5, -8
	mov ebp, esp
	.cfi_def_cfa_register 5
	pushad
	mov EBX, ESP
	mov EBP, EBX
	sub ESP, 220
	mov EDX, DWORD PTR [EBP - 4]
	mov EDX, DWORD PTR [EBP + 12]
	mov EDX, DWORD PTR [EBP - 8]
	mov EDX, DWORD PTR [EBP + 8]
	mov EBX, DWORD PTR [EBP - 8]
	mov DWORD PTR [EBP - 12], EBX
	mov EDX, DWORD PTR [EBP - 16]
	mov EDX, DWORD PTR [EBP + 8]
	mov EBX, DWORD PTR [EBP - 16]
	mov DWORD PTR [EBP - 20], EBX
	mov EBX, 1
	mov DWORD PTR [EBP - 24], EBX
	mov EBX, DWORD PTR [EBP - 24]
	mov DWORD PTR [EBP - 28], EBX
	mov EBX, 0
	mov DWORD PTR [EBP - 32], EBX
	mov EBX, DWORD PTR [EBP - 32]
	mov DWORD PTR [EBP - 36], EBX
	mov EBX, 1
	mov DWORD PTR [EBP - 40], EBX
	mov EBX, DWORD PTR [EBP - 40]
	mov DWORD PTR [EBP - 44], EBX
_label162:
	mov EBX, DWORD PTR [EBP - 28]
	mov DWORD PTR [EBP - 48], EBX
	je _label163
	mov EBX, DWORD PTR [EBP - 12]
	mov DWORD PTR [EBP - 52], EBX
	push DWORD PTR [EBP - 52]
	call _temp1698
	pop DWORD PTR [EBP - 52]
	mov EBX, EAX
	mov DWORD PTR [EBP - 56], EBX
	mov EBX, DWORD PTR [EBP - 56]
	mov DWORD PTR [EBP - 60], EBX
	mov EBX, DWORD PTR [EBP - 4]
	mov DWORD PTR [EBP - 64], EBX
	mov EBX, DWORD PTR [EBP - 60]
	mov DWORD PTR [EBP - 68], EBX
	mov EAX, DWORD PTR [EBP - 64]
	mov EBX, DWORD PTR [EBP - 68]
	cmp EAX, EBX
	setl AL
	mov DWORD PTR [EBP - 72], EAX
	je _label164
	mov EBX, DWORD PTR [EBP - 12]
	mov DWORD PTR [EBP - 76], EBX
	push DWORD PTR [EBP - 76]
	call _temp1701
	pop DWORD PTR [EBP - 76]
	mov EBX, EAX
	mov DWORD PTR [EBP - 80], EBX
	je _label165
	mov EBX, DWORD PTR [EBP - 12]
	mov DWORD PTR [EBP - 84], EBX
	mov EBX, DWORD PTR [EBP - 84]
	mov DWORD PTR [EBP - 20], EBX
	mov EBX, DWORD PTR [EBP - 12]
	mov DWORD PTR [EBP - 88], EBX
	push DWORD PTR [EBP - 88]
	call _temp1697
	pop DWORD PTR [EBP - 88]
	mov EBX, EAX
	mov DWORD PTR [EBP - 92], EBX
	mov EBX, DWORD PTR [EBP - 92]
	mov DWORD PTR [EBP - 12], EBX
	jmp _label166
_label165:
	mov EBX, 0
	mov DWORD PTR [EBP - 96], EBX
	mov EBX, DWORD PTR [EBP - 96]
	mov DWORD PTR [EBP - 28], EBX
_label166:
	jmp _label167
_label164:
	mov EBX, DWORD PTR [EBP - 60]
	mov DWORD PTR [EBP - 100], EBX
	mov EBX, DWORD PTR [EBP - 4]
	mov DWORD PTR [EBP - 104], EBX
	mov EAX, DWORD PTR [EBP - 100]
	mov EBX, DWORD PTR [EBP - 104]
	cmp EAX, EBX
	setl AL
	mov DWORD PTR [EBP - 108], EAX
	je _label168
	mov EBX, DWORD PTR [EBP - 12]
	mov DWORD PTR [EBP - 112], EBX
	push DWORD PTR [EBP - 112]
	call _temp1700
	pop DWORD PTR [EBP - 112]
	mov EBX, EAX
	mov DWORD PTR [EBP - 116], EBX
	je _label169
	mov EBX, DWORD PTR [EBP - 12]
	mov DWORD PTR [EBP - 120], EBX
	mov EBX, DWORD PTR [EBP - 120]
	mov DWORD PTR [EBP - 20], EBX
	mov EBX, DWORD PTR [EBP - 12]
	mov DWORD PTR [EBP - 124], EBX
	push DWORD PTR [EBP - 124]
	call _temp1696
	pop DWORD PTR [EBP - 124]
	mov EBX, EAX
	mov DWORD PTR [EBP - 128], EBX
	mov EBX, DWORD PTR [EBP - 128]
	mov DWORD PTR [EBP - 12], EBX
	jmp _label170
_label169:
	mov EBX, 0
	mov DWORD PTR [EBP - 132], EBX
	mov EBX, DWORD PTR [EBP - 132]
	mov DWORD PTR [EBP - 28], EBX
_label170:
	jmp _label171
_label168:
	mov EBX, DWORD PTR [EBP - 44]
	mov DWORD PTR [EBP - 136], EBX
	je _label172
	mov EBX, DWORD PTR [EBP - 12]
	mov DWORD PTR [EBP - 140], EBX
	push DWORD PTR [EBP - 140]
	call _temp1700
	pop DWORD PTR [EBP - 140]
	mov EBX, EAX
	mov DWORD PTR [EBP - 144], EBX
	mov EBX, DWORD PTR [EBP - 144]
	not EAX
	mov DWORD PTR [EBP - 148], EAX
	mov EBX, DWORD PTR [EBP - 12]
	mov DWORD PTR [EBP - 152], EBX
	push DWORD PTR [EBP - 152]
	call _temp1701
	pop DWORD PTR [EBP - 152]
	mov EBX, EAX
	mov DWORD PTR [EBP - 156], EBX
	mov EBX, DWORD PTR [EBP - 156]
	not EAX
	mov DWORD PTR [EBP - 160], EAX
	mov EAX, DWORD PTR [EBP - 148]
	mov EBX, DWORD PTR [EBP - 160]
	and EAX, EBX
	mov DWORD PTR [EBP - 164], EAX
	je _label173
	mov EBX, 1
	mov DWORD PTR [EBP - 168], EBX
	mov EBX, DWORD PTR [EBP - 168]
	mov DWORD PTR [EBP - 172], EBX
	jmp _label174
_label173:
	mov EDX, DWORD PTR [EBP - 176]
	mov EDX, DWORD PTR [EBP + 8]
	mov EBX, DWORD PTR [EBP - 20]
	mov DWORD PTR [EBP - 180], EBX
	mov EBX, DWORD PTR [EBP - 12]
	mov DWORD PTR [EBP - 184], EBX
	push DWORD PTR [EBP - 184]
	push DWORD PTR [EBP - 180]
	push DWORD PTR [EBP - 176]
	call _temp1707
	pop DWORD PTR [EBP - 176]
	pop DWORD PTR [EBP - 180]
	pop DWORD PTR [EBP - 184]
	mov EBX, EAX
	mov DWORD PTR [EBP - 188], EBX
	mov EBX, DWORD PTR [EBP - 188]
	mov DWORD PTR [EBP - 172], EBX
_label174:
	jmp _label175
_label172:
	mov EDX, DWORD PTR [EBP - 192]
	mov EDX, DWORD PTR [EBP + 8]
	mov EBX, DWORD PTR [EBP - 20]
	mov DWORD PTR [EBP - 196], EBX
	mov EBX, DWORD PTR [EBP - 12]
	mov DWORD PTR [EBP - 200], EBX
	push DWORD PTR [EBP - 200]
	push DWORD PTR [EBP - 196]
	push DWORD PTR [EBP - 192]
	call _temp1707
	pop DWORD PTR [EBP - 192]
	pop DWORD PTR [EBP - 196]
	pop DWORD PTR [EBP - 200]
	mov EBX, EAX
	mov DWORD PTR [EBP - 204], EBX
	mov EBX, DWORD PTR [EBP - 204]
	mov DWORD PTR [EBP - 172], EBX
_label175:
	mov EBX, 1
	mov DWORD PTR [EBP - 208], EBX
	mov EBX, DWORD PTR [EBP - 208]
	mov DWORD PTR [EBP - 36], EBX
	mov EBX, 0
	mov DWORD PTR [EBP - 212], EBX
	mov EBX, DWORD PTR [EBP - 212]
	mov DWORD PTR [EBP - 28], EBX
_label171:
_label167:
	mov EBX, 0
	mov DWORD PTR [EBP - 216], EBX
	mov EBX, DWORD PTR [EBP - 216]
	mov DWORD PTR [EBP - 44], EBX
	jmp _label162
_label163:
	mov EBX, DWORD PTR [EBP - 36]
	mov DWORD PTR [EBP - 220], EBX
	mov EBX, DWORD PTR [EBP - 220]
	mov EAX, EBX
	mov EBX, DWORD PTR [ESP-32]
	mov EAX, EBX
	add ESP, 220
	popad
	pop ebp
	.cfi_restore 5
	.cfi_def_cfa 4, 4
	ret
	.cfi_endproc

_temp1707:
	.cfi_startproc
	push ebp
	.cfi_def_cfa_offset 8
	.cfi_offset 5, -8
	mov ebp, esp
	.cfi_def_cfa_register 5
	pushad
	mov EBX, ESP
	mov EBP, EBX
	sub ESP, 160
	mov EDX, DWORD PTR [EBP - 4]
	mov EDX, DWORD PTR [EBP + 16]
	mov EDX, DWORD PTR [EBP - 8]
	mov EDX, DWORD PTR [EBP + 12]
	mov EBX, DWORD PTR [EBP - 8]
	mov DWORD PTR [EBP - 12], EBX
	push DWORD PTR [EBP - 12]
	call _temp1701
	pop DWORD PTR [EBP - 12]
	mov EBX, EAX
	mov DWORD PTR [EBP - 16], EBX
	je _label176
	mov EDX, DWORD PTR [EBP - 20]
	mov EDX, DWORD PTR [EBP + 8]
	mov EBX, DWORD PTR [EBP - 4]
	mov DWORD PTR [EBP - 24], EBX
	mov EBX, DWORD PTR [EBP - 8]
	mov DWORD PTR [EBP - 28], EBX
	push DWORD PTR [EBP - 28]
	push DWORD PTR [EBP - 24]
	push DWORD PTR [EBP - 20]
	call _temp1709
	pop DWORD PTR [EBP - 20]
	pop DWORD PTR [EBP - 24]
	pop DWORD PTR [EBP - 28]
	mov EBX, EAX
	mov DWORD PTR [EBP - 32], EBX
	mov EBX, DWORD PTR [EBP - 32]
	mov DWORD PTR [EBP - 36], EBX
	jmp _label177
_label176:
	mov EBX, DWORD PTR [EBP - 8]
	mov DWORD PTR [EBP - 40], EBX
	push DWORD PTR [EBP - 40]
	call _temp1700
	pop DWORD PTR [EBP - 40]
	mov EBX, EAX
	mov DWORD PTR [EBP - 44], EBX
	je _label178
	mov EDX, DWORD PTR [EBP - 48]
	mov EDX, DWORD PTR [EBP + 8]
	mov EBX, DWORD PTR [EBP - 4]
	mov DWORD PTR [EBP - 52], EBX
	mov EBX, DWORD PTR [EBP - 8]
	mov DWORD PTR [EBP - 56], EBX
	push DWORD PTR [EBP - 56]
	push DWORD PTR [EBP - 52]
	push DWORD PTR [EBP - 48]
	call _temp1708
	pop DWORD PTR [EBP - 48]
	pop DWORD PTR [EBP - 52]
	pop DWORD PTR [EBP - 56]
	mov EBX, EAX
	mov DWORD PTR [EBP - 60], EBX
	mov EBX, DWORD PTR [EBP - 60]
	mov DWORD PTR [EBP - 36], EBX
	jmp _label179
_label178:
	mov EBX, DWORD PTR [EBP - 8]
	mov DWORD PTR [EBP - 64], EBX
	push DWORD PTR [EBP - 64]
	call _temp1698
	pop DWORD PTR [EBP - 64]
	mov EBX, EAX
	mov DWORD PTR [EBP - 68], EBX
	mov EBX, DWORD PTR [EBP - 68]
	mov DWORD PTR [EBP - 72], EBX
	mov EBX, DWORD PTR [EBP - 4]
	mov DWORD PTR [EBP - 76], EBX
	push DWORD PTR [EBP - 76]
	call _temp1697
	pop DWORD PTR [EBP - 76]
	mov EBX, EAX
	mov DWORD PTR [EBP - 80], EBX
	push DWORD PTR [EBP - 80]
	call _temp1698
	pop DWORD PTR [EBP - 80]
	mov EBX, EAX
	mov DWORD PTR [EBP - 84], EBX
	mov EBX, DWORD PTR [EBP - 84]
	mov DWORD PTR [EBP - 88], EBX
	mov EDX, DWORD PTR [EBP - 92]
	mov EDX, DWORD PTR [EBP + 8]
	mov EBX, DWORD PTR [EBP - 72]
	mov DWORD PTR [EBP - 96], EBX
	mov EBX, DWORD PTR [EBP - 88]
	mov DWORD PTR [EBP - 100], EBX
	push DWORD PTR [EBP - 100]
	push DWORD PTR [EBP - 96]
	push DWORD PTR [EBP - 92]
	call _temp1704
	pop DWORD PTR [EBP - 92]
	pop DWORD PTR [EBP - 96]
	pop DWORD PTR [EBP - 100]
	mov EBX, EAX
	mov DWORD PTR [EBP - 104], EBX
	je _label180
	mov EBX, DWORD PTR [EBP - 4]
	mov DWORD PTR [EBP - 108], EBX
	mov EDX, DWORD PTR [EBP - 112]
	mov EDX, DWORD PTR [EBP + 8]
	mov EDX, DWORD PTR [EBP - 116]
	mov EBX, DWORD PTR [EBP - 112]
	mov EDX, DWORD PTR [EBX + 20]
	push DWORD PTR [EBP - 116]
	push DWORD PTR [EBP - 108]
	call _temp1695
	pop DWORD PTR [EBP - 108]
	pop DWORD PTR [EBP - 116]
	mov EBX, EAX
	mov DWORD PTR [EBP - 120], EBX
	mov EBX, DWORD PTR [EBP - 120]
	mov DWORD PTR [EBP - 36], EBX
	mov EBX, DWORD PTR [EBP - 4]
	mov DWORD PTR [EBP - 124], EBX
	mov EBX, 0
	mov DWORD PTR [EBP - 128], EBX
	push DWORD PTR [EBP - 128]
	push DWORD PTR [EBP - 124]
	call _temp1702
	pop DWORD PTR [EBP - 124]
	pop DWORD PTR [EBP - 128]
	mov EBX, EAX
	mov DWORD PTR [EBP - 132], EBX
	mov EBX, DWORD PTR [EBP - 132]
	mov DWORD PTR [EBP - 36], EBX
	jmp _label181
_label180:
	mov EBX, DWORD PTR [EBP - 4]
	mov DWORD PTR [EBP - 136], EBX
	mov EDX, DWORD PTR [EBP - 112]
	mov EDX, DWORD PTR [EBP + 8]
	mov EDX, DWORD PTR [EBP - 140]
	mov EBX, DWORD PTR [EBP - 112]
	mov EDX, DWORD PTR [EBX + 20]
	push DWORD PTR [EBP - 140]
	push DWORD PTR [EBP - 136]
	call _temp1694
	pop DWORD PTR [EBP - 136]
	pop DWORD PTR [EBP - 140]
	mov EBX, EAX
	mov DWORD PTR [EBP - 144], EBX
	mov EBX, DWORD PTR [EBP - 144]
	mov DWORD PTR [EBP - 36], EBX
	mov EBX, DWORD PTR [EBP - 4]
	mov DWORD PTR [EBP - 148], EBX
	mov EBX, 0
	mov DWORD PTR [EBP - 152], EBX
	push DWORD PTR [EBP - 152]
	push DWORD PTR [EBP - 148]
	call _temp1703
	pop DWORD PTR [EBP - 148]
	pop DWORD PTR [EBP - 152]
	mov EBX, EAX
	mov DWORD PTR [EBP - 156], EBX
	mov EBX, DWORD PTR [EBP - 156]
	mov DWORD PTR [EBP - 36], EBX
_label181:
_label179:
_label177:
	mov EBX, 1
	mov DWORD PTR [EBP - 160], EBX
	mov EBX, DWORD PTR [EBP - 160]
	mov EAX, EBX
	mov EBX, DWORD PTR [ESP-32]
	mov EAX, EBX
	add ESP, 160
	popad
	pop ebp
	.cfi_restore 5
	.cfi_def_cfa 4, 4
	ret
	.cfi_endproc

_temp1708:
	.cfi_startproc
	push ebp
	.cfi_def_cfa_offset 8
	.cfi_offset 5, -8
	mov ebp, esp
	.cfi_def_cfa_register 5
	pushad
	mov EBX, ESP
	mov EBP, EBX
	sub ESP, 84
	mov EDX, DWORD PTR [EBP - 4]
	mov EDX, DWORD PTR [EBP + 16]
	mov EDX, DWORD PTR [EBP - 8]
	mov EDX, DWORD PTR [EBP + 12]
_label182:
	mov EBX, DWORD PTR [EBP - 8]
	mov DWORD PTR [EBP - 12], EBX
	push DWORD PTR [EBP - 12]
	call _temp1700
	pop DWORD PTR [EBP - 12]
	mov EBX, EAX
	mov DWORD PTR [EBP - 16], EBX
	je _label183
	mov EBX, DWORD PTR [EBP - 8]
	mov DWORD PTR [EBP - 20], EBX
	mov EBX, DWORD PTR [EBP - 8]
	mov DWORD PTR [EBP - 24], EBX
	push DWORD PTR [EBP - 24]
	call _temp1696
	pop DWORD PTR [EBP - 24]
	mov EBX, EAX
	mov DWORD PTR [EBP - 28], EBX
	push DWORD PTR [EBP - 28]
	call _temp1698
	pop DWORD PTR [EBP - 28]
	mov EBX, EAX
	mov DWORD PTR [EBP - 32], EBX
	push DWORD PTR [EBP - 32]
	push DWORD PTR [EBP - 20]
	call _temp1699
	pop DWORD PTR [EBP - 20]
	pop DWORD PTR [EBP - 32]
	mov EBX, EAX
	mov DWORD PTR [EBP - 36], EBX
	mov EBX, DWORD PTR [EBP - 36]
	mov DWORD PTR [EBP - 40], EBX
	mov EBX, DWORD PTR [EBP - 8]
	mov DWORD PTR [EBP - 44], EBX
	mov EBX, DWORD PTR [EBP - 44]
	mov DWORD PTR [EBP - 4], EBX
	mov EBX, DWORD PTR [EBP - 8]
	mov DWORD PTR [EBP - 48], EBX
	push DWORD PTR [EBP - 48]
	call _temp1696
	pop DWORD PTR [EBP - 48]
	mov EBX, EAX
	mov DWORD PTR [EBP - 52], EBX
	mov EBX, DWORD PTR [EBP - 52]
	mov DWORD PTR [EBP - 8], EBX
	jmp _label182
_label183:
	mov EBX, DWORD PTR [EBP - 4]
	mov DWORD PTR [EBP - 56], EBX
	mov EDX, DWORD PTR [EBP - 60]
	mov EDX, DWORD PTR [EBP + 8]
	mov EDX, DWORD PTR [EBP - 64]
	mov EBX, DWORD PTR [EBP - 60]
	mov EDX, DWORD PTR [EBX + 20]
	push DWORD PTR [EBP - 64]
	push DWORD PTR [EBP - 56]
	call _temp1694
	pop DWORD PTR [EBP - 56]
	pop DWORD PTR [EBP - 64]
	mov EBX, EAX
	mov DWORD PTR [EBP - 68], EBX
	mov EBX, DWORD PTR [EBP - 68]
	mov DWORD PTR [EBP - 40], EBX
	mov EBX, DWORD PTR [EBP - 4]
	mov DWORD PTR [EBP - 72], EBX
	mov EBX, 0
	mov DWORD PTR [EBP - 76], EBX
	push DWORD PTR [EBP - 76]
	push DWORD PTR [EBP - 72]
	call _temp1703
	pop DWORD PTR [EBP - 72]
	pop DWORD PTR [EBP - 76]
	mov EBX, EAX
	mov DWORD PTR [EBP - 80], EBX
	mov EBX, DWORD PTR [EBP - 80]
	mov DWORD PTR [EBP - 40], EBX
	mov EBX, 1
	mov DWORD PTR [EBP - 84], EBX
	mov EBX, DWORD PTR [EBP - 84]
	mov EAX, EBX
	mov EBX, DWORD PTR [ESP-32]
	mov EAX, EBX
	add ESP, 84
	popad
	pop ebp
	.cfi_restore 5
	.cfi_def_cfa 4, 4
	ret
	.cfi_endproc

_temp1709:
	.cfi_startproc
	push ebp
	.cfi_def_cfa_offset 8
	.cfi_offset 5, -8
	mov ebp, esp
	.cfi_def_cfa_register 5
	pushad
	mov EBX, ESP
	mov EBP, EBX
	sub ESP, 84
	mov EDX, DWORD PTR [EBP - 4]
	mov EDX, DWORD PTR [EBP + 16]
	mov EDX, DWORD PTR [EBP - 8]
	mov EDX, DWORD PTR [EBP + 12]
_label184:
	mov EBX, DWORD PTR [EBP - 8]
	mov DWORD PTR [EBP - 12], EBX
	push DWORD PTR [EBP - 12]
	call _temp1701
	pop DWORD PTR [EBP - 12]
	mov EBX, EAX
	mov DWORD PTR [EBP - 16], EBX
	je _label185
	mov EBX, DWORD PTR [EBP - 8]
	mov DWORD PTR [EBP - 20], EBX
	mov EBX, DWORD PTR [EBP - 8]
	mov DWORD PTR [EBP - 24], EBX
	push DWORD PTR [EBP - 24]
	call _temp1697
	pop DWORD PTR [EBP - 24]
	mov EBX, EAX
	mov DWORD PTR [EBP - 28], EBX
	push DWORD PTR [EBP - 28]
	call _temp1698
	pop DWORD PTR [EBP - 28]
	mov EBX, EAX
	mov DWORD PTR [EBP - 32], EBX
	push DWORD PTR [EBP - 32]
	push DWORD PTR [EBP - 20]
	call _temp1699
	pop DWORD PTR [EBP - 20]
	pop DWORD PTR [EBP - 32]
	mov EBX, EAX
	mov DWORD PTR [EBP - 36], EBX
	mov EBX, DWORD PTR [EBP - 36]
	mov DWORD PTR [EBP - 40], EBX
	mov EBX, DWORD PTR [EBP - 8]
	mov DWORD PTR [EBP - 44], EBX
	mov EBX, DWORD PTR [EBP - 44]
	mov DWORD PTR [EBP - 4], EBX
	mov EBX, DWORD PTR [EBP - 8]
	mov DWORD PTR [EBP - 48], EBX
	push DWORD PTR [EBP - 48]
	call _temp1697
	pop DWORD PTR [EBP - 48]
	mov EBX, EAX
	mov DWORD PTR [EBP - 52], EBX
	mov EBX, DWORD PTR [EBP - 52]
	mov DWORD PTR [EBP - 8], EBX
	jmp _label184
_label185:
	mov EBX, DWORD PTR [EBP - 4]
	mov DWORD PTR [EBP - 56], EBX
	mov EDX, DWORD PTR [EBP - 60]
	mov EDX, DWORD PTR [EBP + 8]
	mov EDX, DWORD PTR [EBP - 64]
	mov EBX, DWORD PTR [EBP - 60]
	mov EDX, DWORD PTR [EBX + 20]
	push DWORD PTR [EBP - 64]
	push DWORD PTR [EBP - 56]
	call _temp1695
	pop DWORD PTR [EBP - 56]
	pop DWORD PTR [EBP - 64]
	mov EBX, EAX
	mov DWORD PTR [EBP - 68], EBX
	mov EBX, DWORD PTR [EBP - 68]
	mov DWORD PTR [EBP - 40], EBX
	mov EBX, DWORD PTR [EBP - 4]
	mov DWORD PTR [EBP - 72], EBX
	mov EBX, 0
	mov DWORD PTR [EBP - 76], EBX
	push DWORD PTR [EBP - 76]
	push DWORD PTR [EBP - 72]
	call _temp1702
	pop DWORD PTR [EBP - 72]
	pop DWORD PTR [EBP - 76]
	mov EBX, EAX
	mov DWORD PTR [EBP - 80], EBX
	mov EBX, DWORD PTR [EBP - 80]
	mov DWORD PTR [EBP - 40], EBX
	mov EBX, 1
	mov DWORD PTR [EBP - 84], EBX
	mov EBX, DWORD PTR [EBP - 84]
	mov EAX, EBX
	mov EBX, DWORD PTR [ESP-32]
	mov EAX, EBX
	add ESP, 84
	popad
	pop ebp
	.cfi_restore 5
	.cfi_def_cfa 4, 4
	ret
	.cfi_endproc

_temp1710:
	.cfi_startproc
	push ebp
	.cfi_def_cfa_offset 8
	.cfi_offset 5, -8
	mov ebp, esp
	.cfi_def_cfa_register 5
	pushad
	mov EBX, ESP
	mov EBP, EBX
	sub ESP, 120
	mov EDX, DWORD PTR [EBP - 4]
	mov EDX, DWORD PTR [EBP + 12]
	mov EDX, DWORD PTR [EBP - 8]
	mov EDX, DWORD PTR [EBP + 8]
	mov EBX, DWORD PTR [EBP - 8]
	mov DWORD PTR [EBP - 12], EBX
	mov EBX, 1
	mov DWORD PTR [EBP - 16], EBX
	mov EBX, DWORD PTR [EBP - 16]
	mov DWORD PTR [EBP - 20], EBX
	mov EBX, 0
	mov DWORD PTR [EBP - 24], EBX
	mov EBX, DWORD PTR [EBP - 24]
	mov DWORD PTR [EBP - 28], EBX
_label186:
	mov EBX, DWORD PTR [EBP - 20]
	mov DWORD PTR [EBP - 32], EBX
	je _label187
	mov EBX, DWORD PTR [EBP - 12]
	mov DWORD PTR [EBP - 36], EBX
	push DWORD PTR [EBP - 36]
	call _temp1698
	pop DWORD PTR [EBP - 36]
	mov EBX, EAX
	mov DWORD PTR [EBP - 40], EBX
	mov EBX, DWORD PTR [EBP - 40]
	mov DWORD PTR [EBP - 44], EBX
	mov EBX, DWORD PTR [EBP - 4]
	mov DWORD PTR [EBP - 48], EBX
	mov EBX, DWORD PTR [EBP - 44]
	mov DWORD PTR [EBP - 52], EBX
	mov EAX, DWORD PTR [EBP - 48]
	mov EBX, DWORD PTR [EBP - 52]
	cmp EAX, EBX
	setl AL
	mov DWORD PTR [EBP - 56], EAX
	je _label188
	mov EBX, DWORD PTR [EBP - 12]
	mov DWORD PTR [EBP - 60], EBX
	push DWORD PTR [EBP - 60]
	call _temp1701
	pop DWORD PTR [EBP - 60]
	mov EBX, EAX
	mov DWORD PTR [EBP - 64], EBX
	je _label189
	mov EBX, DWORD PTR [EBP - 12]
	mov DWORD PTR [EBP - 68], EBX
	push DWORD PTR [EBP - 68]
	call _temp1697
	pop DWORD PTR [EBP - 68]
	mov EBX, EAX
	mov DWORD PTR [EBP - 72], EBX
	mov EBX, DWORD PTR [EBP - 72]
	mov DWORD PTR [EBP - 12], EBX
	jmp _label190
_label189:
	mov EBX, 0
	mov DWORD PTR [EBP - 76], EBX
	mov EBX, DWORD PTR [EBP - 76]
	mov DWORD PTR [EBP - 20], EBX
_label190:
	jmp _label191
_label188:
	mov EBX, DWORD PTR [EBP - 44]
	mov DWORD PTR [EBP - 80], EBX
	mov EBX, DWORD PTR [EBP - 4]
	mov DWORD PTR [EBP - 84], EBX
	mov EAX, DWORD PTR [EBP - 80]
	mov EBX, DWORD PTR [EBP - 84]
	cmp EAX, EBX
	setl AL
	mov DWORD PTR [EBP - 88], EAX
	je _label192
	mov EBX, DWORD PTR [EBP - 12]
	mov DWORD PTR [EBP - 92], EBX
	push DWORD PTR [EBP - 92]
	call _temp1700
	pop DWORD PTR [EBP - 92]
	mov EBX, EAX
	mov DWORD PTR [EBP - 96], EBX
	je _label193
	mov EBX, DWORD PTR [EBP - 12]
	mov DWORD PTR [EBP - 100], EBX
	push DWORD PTR [EBP - 100]
	call _temp1696
	pop DWORD PTR [EBP - 100]
	mov EBX, EAX
	mov DWORD PTR [EBP - 104], EBX
	mov EBX, DWORD PTR [EBP - 104]
	mov DWORD PTR [EBP - 12], EBX
	jmp _label194
_label193:
	mov EBX, 0
	mov DWORD PTR [EBP - 108], EBX
	mov EBX, DWORD PTR [EBP - 108]
	mov DWORD PTR [EBP - 20], EBX
_label194:
	jmp _label195
_label192:
	mov EBX, 1
	mov DWORD PTR [EBP - 112], EBX
	mov EBX, DWORD PTR [EBP - 112]
	mov DWORD PTR [EBP - 28], EBX
	mov EBX, 0
	mov DWORD PTR [EBP - 116], EBX
	mov EBX, DWORD PTR [EBP - 116]
	mov DWORD PTR [EBP - 20], EBX
_label195:
_label191:
	jmp _label186
_label187:
	mov EBX, DWORD PTR [EBP - 28]
	mov DWORD PTR [EBP - 120], EBX
	mov EBX, DWORD PTR [EBP - 120]
	mov EAX, EBX
	mov EBX, DWORD PTR [ESP-32]
	mov EAX, EBX
	add ESP, 120
	popad
	pop ebp
	.cfi_restore 5
	.cfi_def_cfa 4, 4
	ret
	.cfi_endproc

_temp1711:
	.cfi_startproc
	push ebp
	.cfi_def_cfa_offset 8
	.cfi_offset 5, -8
	mov ebp, esp
	.cfi_def_cfa_register 5
	pushad
	mov EBX, ESP
	mov EBP, EBX
	sub ESP, 28
	mov EDX, DWORD PTR [EBP - 4]
	mov EDX, DWORD PTR [EBP + 8]
	mov EBX, DWORD PTR [EBP - 4]
	mov DWORD PTR [EBP - 8], EBX
	mov EDX, DWORD PTR [EBP - 12]
	mov EDX, DWORD PTR [EBP + 8]
	mov EBX, DWORD PTR [EBP - 8]
	mov DWORD PTR [EBP - 16], EBX
	push DWORD PTR [EBP - 16]
	push DWORD PTR [EBP - 12]
	call _temp1712
	pop DWORD PTR [EBP - 12]
	pop DWORD PTR [EBP - 16]
	mov EBX, EAX
	mov DWORD PTR [EBP - 20], EBX
	mov EBX, DWORD PTR [EBP - 20]
	mov DWORD PTR [EBP - 24], EBX
	mov EBX, 1
	mov DWORD PTR [EBP - 28], EBX
	mov EBX, DWORD PTR [EBP - 28]
	mov EAX, EBX
	mov EBX, DWORD PTR [ESP-32]
	mov EAX, EBX
	add ESP, 28
	popad
	pop ebp
	.cfi_restore 5
	.cfi_def_cfa 4, 4
	ret
	.cfi_endproc

_temp1712:
	.cfi_startproc
	push ebp
	.cfi_def_cfa_offset 8
	.cfi_offset 5, -8
	mov ebp, esp
	.cfi_def_cfa_register 5
	pushad
	mov EBX, ESP
	mov EBP, EBX
	sub ESP, 76
	mov EDX, DWORD PTR [EBP - 4]
	mov EDX, DWORD PTR [EBP + 12]
	mov EBX, DWORD PTR [EBP - 4]
	mov DWORD PTR [EBP - 8], EBX
	push DWORD PTR [EBP - 8]
	call _temp1701
	pop DWORD PTR [EBP - 8]
	mov EBX, EAX
	mov DWORD PTR [EBP - 12], EBX
	je _label196
	mov EDX, DWORD PTR [EBP - 16]
	mov EDX, DWORD PTR [EBP + 8]
	mov EBX, DWORD PTR [EBP - 4]
	mov DWORD PTR [EBP - 20], EBX
	push DWORD PTR [EBP - 20]
	call _temp1697
	pop DWORD PTR [EBP - 20]
	mov EBX, EAX
	mov DWORD PTR [EBP - 24], EBX
	push DWORD PTR [EBP - 24]
	push DWORD PTR [EBP - 16]
	call _temp1712
	pop DWORD PTR [EBP - 16]
	pop DWORD PTR [EBP - 24]
	mov EBX, EAX
	mov DWORD PTR [EBP - 28], EBX
	mov EBX, DWORD PTR [EBP - 28]
	mov DWORD PTR [EBP - 32], EBX
	jmp _label197
_label196:
	mov EBX, 1
	mov DWORD PTR [EBP - 36], EBX
	mov EBX, DWORD PTR [EBP - 36]
	mov DWORD PTR [EBP - 32], EBX
_label197:
	mov EBX, DWORD PTR [EBP - 4]
	mov DWORD PTR [EBP - 40], EBX
	push DWORD PTR [EBP - 40]
	call _temp1698
	pop DWORD PTR [EBP - 40]
	mov EBX, EAX
	mov DWORD PTR [EBP - 44], EBX
	mov EAX, DWORD PTR [EBP - 44]
	mov DWORD PTR [ESP+4], EAX
	mov DWORD PTR [ESP], OFFSET FLAT:LC0
	call _printf
	mov EBX, DWORD PTR [EBP - 4]
	mov DWORD PTR [EBP - 48], EBX
	push DWORD PTR [EBP - 48]
	call _temp1700
	pop DWORD PTR [EBP - 48]
	mov EBX, EAX
	mov DWORD PTR [EBP - 52], EBX
	je _label198
	mov EDX, DWORD PTR [EBP - 56]
	mov EDX, DWORD PTR [EBP + 8]
	mov EBX, DWORD PTR [EBP - 4]
	mov DWORD PTR [EBP - 60], EBX
	push DWORD PTR [EBP - 60]
	call _temp1696
	pop DWORD PTR [EBP - 60]
	mov EBX, EAX
	mov DWORD PTR [EBP - 64], EBX
	push DWORD PTR [EBP - 64]
	push DWORD PTR [EBP - 56]
	call _temp1712
	pop DWORD PTR [EBP - 56]
	pop DWORD PTR [EBP - 64]
	mov EBX, EAX
	mov DWORD PTR [EBP - 68], EBX
	mov EBX, DWORD PTR [EBP - 68]
	mov DWORD PTR [EBP - 32], EBX
	jmp _label199
_label198:
	mov EBX, 1
	mov DWORD PTR [EBP - 72], EBX
	mov EBX, DWORD PTR [EBP - 72]
	mov DWORD PTR [EBP - 32], EBX
_label199:
	mov EBX, 1
	mov DWORD PTR [EBP - 76], EBX
	mov EBX, DWORD PTR [EBP - 76]
	mov EAX, EBX
	mov EBX, DWORD PTR [ESP-32]
	mov EAX, EBX
	add ESP, 76
	popad
	pop ebp
	.cfi_restore 5
	.cfi_def_cfa 4, 4
	ret
	.cfi_endproc

_temp1713:
	.cfi_startproc
	push ebp
	.cfi_def_cfa_offset 8
	.cfi_offset 5, -8
	mov ebp, esp
	.cfi_def_cfa_register 5
	pushad
	mov EBX, ESP
	mov EBP, EBX
	sub ESP, 28
	mov EDX, DWORD PTR [EBP - 4]
	mov EDX, DWORD PTR [EBP + 12]
	mov EBX, 333
	mov DWORD PTR [EBP - 8], EBX
	mov EAX, DWORD PTR [EBP - 8]
	mov DWORD PTR [ESP+4], EAX
	mov DWORD PTR [ESP], OFFSET FLAT:LC0
	call _printf
	mov EBX, DWORD PTR [EBP - 4]
	mov DWORD PTR [EBP - 12], EBX
	mov EDX, DWORD PTR [EBP - 16]
	mov EDX, DWORD PTR [EBP + 8]
	push DWORD PTR [EBP - 16]
	push DWORD PTR [EBP - 12]
	call _temp1720
	pop DWORD PTR [EBP - 12]
	pop DWORD PTR [EBP - 16]
	mov EBX, EAX
	mov DWORD PTR [EBP - 20], EBX
	mov EBX, DWORD PTR [EBP - 20]
	mov DWORD PTR [EBP - 24], EBX
	mov EBX, 0
	mov DWORD PTR [EBP - 28], EBX
	mov EBX, DWORD PTR [EBP - 28]
	mov EAX, EBX
	mov EBX, DWORD PTR [ESP-32]
	mov EAX, EBX
	add ESP, 28
	popad
	pop ebp
	.cfi_restore 5
	.cfi_def_cfa 4, 4
	ret
	.cfi_endproc

_temp1720:
	.cfi_startproc
	push ebp
	.cfi_def_cfa_offset 8
	.cfi_offset 5, -8
	mov ebp, esp
	.cfi_def_cfa_register 5
	pushad
	mov EBX, ESP
	mov EBP, EBX
	sub ESP, 84
	mov EDX, DWORD PTR [EBP - 4]
	mov EDX, DWORD PTR [EBP + 12]
	mov EBX, DWORD PTR [EBP - 4]
	mov DWORD PTR [EBP - 8], EBX
	push DWORD PTR [EBP - 8]
	call _temp1700
	pop DWORD PTR [EBP - 8]
	mov EBX, EAX
	mov DWORD PTR [EBP - 12], EBX
	je _label200
	mov EBX, DWORD PTR [EBP - 4]
	mov DWORD PTR [EBP - 16], EBX
	push DWORD PTR [EBP - 16]
	call _temp1696
	pop DWORD PTR [EBP - 16]
	mov EBX, EAX
	mov DWORD PTR [EBP - 20], EBX
	mov EDX, DWORD PTR [EBP - 24]
	mov EDX, DWORD PTR [EBP + 8]
	mov EDX, DWORD PTR [EBP - 20]
	mov EBX, DWORD PTR [EBP - 24]
	mov DWORD PTR [EBX + 4], EDX
	mov EDX, DWORD PTR [EBP - 24]
	mov EDX, DWORD PTR [EBP + 8]
	mov EDX, DWORD PTR [EBP - 28]
	mov EBX, DWORD PTR [EBP - 24]
	mov EDX, DWORD PTR [EBX + 4]
	mov EDX, DWORD PTR [EBP - 32]
	mov EDX, DWORD PTR [EBP + 8]
	push DWORD PTR [EBP - 32]
	push DWORD PTR [EBP - 28]
	call _temp1713
	pop DWORD PTR [EBP - 28]
	pop DWORD PTR [EBP - 32]
	mov EBX, EAX
	mov DWORD PTR [EBP - 36], EBX
	mov EBX, DWORD PTR [EBP - 36]
	mov DWORD PTR [EBP - 40], EBX
	jmp _label201
_label200:
	mov EBX, 0
	mov DWORD PTR [EBP - 44], EBX
	mov EBX, DWORD PTR [EBP - 44]
	mov DWORD PTR [EBP - 40], EBX
_label201:
	mov EBX, DWORD PTR [EBP - 4]
	mov DWORD PTR [EBP - 48], EBX
	push DWORD PTR [EBP - 48]
	call _temp1701
	pop DWORD PTR [EBP - 48]
	mov EBX, EAX
	mov DWORD PTR [EBP - 52], EBX
	je _label202
	mov EBX, DWORD PTR [EBP - 4]
	mov DWORD PTR [EBP - 56], EBX
	push DWORD PTR [EBP - 56]
	call _temp1697
	pop DWORD PTR [EBP - 56]
	mov EBX, EAX
	mov DWORD PTR [EBP - 60], EBX
	mov EDX, DWORD PTR [EBP - 64]
	mov EDX, DWORD PTR [EBP + 8]
	mov EDX, DWORD PTR [EBP - 60]
	mov EBX, DWORD PTR [EBP - 64]
	mov DWORD PTR [EBX + 0], EDX
	mov EDX, DWORD PTR [EBP - 64]
	mov EDX, DWORD PTR [EBP + 8]
	mov EDX, DWORD PTR [EBP - 68]
	mov EBX, DWORD PTR [EBP - 64]
	mov EDX, DWORD PTR [EBX + 0]
	mov EDX, DWORD PTR [EBP - 72]
	mov EDX, DWORD PTR [EBP + 8]
	push DWORD PTR [EBP - 72]
	push DWORD PTR [EBP - 68]
	call _temp1713
	pop DWORD PTR [EBP - 68]
	pop DWORD PTR [EBP - 72]
	mov EBX, EAX
	mov DWORD PTR [EBP - 76], EBX
	mov EBX, DWORD PTR [EBP - 76]
	mov DWORD PTR [EBP - 40], EBX
	jmp _label203
_label202:
	mov EBX, 0
	mov DWORD PTR [EBP - 80], EBX
	mov EBX, DWORD PTR [EBP - 80]
	mov DWORD PTR [EBP - 40], EBX
_label203:
	mov EBX, 0
	mov DWORD PTR [EBP - 84], EBX
	mov EBX, DWORD PTR [EBP - 84]
	mov EAX, EBX
	mov EBX, DWORD PTR [ESP-32]
	mov EAX, EBX
	add ESP, 84
	popad
	pop ebp
	.cfi_restore 5
	.cfi_def_cfa 4, 4
	ret
	.cfi_endproc

_temp1723:
	.cfi_startproc
	push ebp
	.cfi_def_cfa_offset 8
	.cfi_offset 5, -8
	mov ebp, esp
	.cfi_def_cfa_register 5
	pushad
	mov EBX, ESP
	mov EBP, EBX
	sub ESP, 92
	mov EDX, DWORD PTR [EBP - 4]
	mov EDX, DWORD PTR [EBP + 12]
	mov EBX, DWORD PTR [EBP - 4]
	mov DWORD PTR [EBP - 8], EBX
	push DWORD PTR [EBP - 8]
	call _temp1700
	pop DWORD PTR [EBP - 8]
	mov EBX, EAX
	mov DWORD PTR [EBP - 12], EBX
	je _label204
	mov EBX, DWORD PTR [EBP - 4]
	mov DWORD PTR [EBP - 16], EBX
	push DWORD PTR [EBP - 16]
	call _temp1696
	pop DWORD PTR [EBP - 16]
	mov EBX, EAX
	mov DWORD PTR [EBP - 20], EBX
	mov EDX, DWORD PTR [EBP - 24]
	mov EDX, DWORD PTR [EBP + 8]
	mov EDX, DWORD PTR [EBP - 20]
	mov EBX, DWORD PTR [EBP - 24]
	mov DWORD PTR [EBX + 4], EDX
	mov EDX, DWORD PTR [EBP - 24]
	mov EDX, DWORD PTR [EBP + 8]
	mov EDX, DWORD PTR [EBP - 28]
	mov EBX, DWORD PTR [EBP - 24]
	mov EDX, DWORD PTR [EBX + 4]
	mov EDX, DWORD PTR [EBP - 32]
	mov EDX, DWORD PTR [EBP + 8]
	push DWORD PTR [EBP - 32]
	push DWORD PTR [EBP - 28]
	call _temp1713
	pop DWORD PTR [EBP - 28]
	pop DWORD PTR [EBP - 32]
	mov EBX, EAX
	mov DWORD PTR [EBP - 36], EBX
	mov EBX, DWORD PTR [EBP - 36]
	mov DWORD PTR [EBP - 40], EBX
	jmp _label205
_label204:
	mov EBX, 0
	mov DWORD PTR [EBP - 44], EBX
	mov EBX, DWORD PTR [EBP - 44]
	mov DWORD PTR [EBP - 40], EBX
_label205:
	mov EBX, DWORD PTR [EBP - 4]
	mov DWORD PTR [EBP - 48], EBX
	push DWORD PTR [EBP - 48]
	call _temp1698
	pop DWORD PTR [EBP - 48]
	mov EBX, EAX
	mov DWORD PTR [EBP - 52], EBX
	mov EAX, DWORD PTR [EBP - 52]
	mov DWORD PTR [ESP+4], EAX
	mov DWORD PTR [ESP], OFFSET FLAT:LC0
	call _printf
	mov EBX, DWORD PTR [EBP - 4]
	mov DWORD PTR [EBP - 56], EBX
	push DWORD PTR [EBP - 56]
	call _temp1701
	pop DWORD PTR [EBP - 56]
	mov EBX, EAX
	mov DWORD PTR [EBP - 60], EBX
	je _label206
	mov EBX, DWORD PTR [EBP - 4]
	mov DWORD PTR [EBP - 64], EBX
	push DWORD PTR [EBP - 64]
	call _temp1697
	pop DWORD PTR [EBP - 64]
	mov EBX, EAX
	mov DWORD PTR [EBP - 68], EBX
	mov EDX, DWORD PTR [EBP - 72]
	mov EDX, DWORD PTR [EBP + 8]
	mov EDX, DWORD PTR [EBP - 68]
	mov EBX, DWORD PTR [EBP - 72]
	mov DWORD PTR [EBX + 0], EDX
	mov EDX, DWORD PTR [EBP - 72]
	mov EDX, DWORD PTR [EBP + 8]
	mov EDX, DWORD PTR [EBP - 76]
	mov EBX, DWORD PTR [EBP - 72]
	mov EDX, DWORD PTR [EBX + 0]
	mov EDX, DWORD PTR [EBP - 80]
	mov EDX, DWORD PTR [EBP + 8]
	push DWORD PTR [EBP - 80]
	push DWORD PTR [EBP - 76]
	call _temp1713
	pop DWORD PTR [EBP - 76]
	pop DWORD PTR [EBP - 80]
	mov EBX, EAX
	mov DWORD PTR [EBP - 84], EBX
	mov EBX, DWORD PTR [EBP - 84]
	mov DWORD PTR [EBP - 40], EBX
	jmp _label207
_label206:
	mov EBX, 0
	mov DWORD PTR [EBP - 88], EBX
	mov EBX, DWORD PTR [EBP - 88]
	mov DWORD PTR [EBP - 40], EBX
_label207:
	mov EBX, 0
	mov DWORD PTR [EBP - 92], EBX
	mov EBX, DWORD PTR [EBP - 92]
	mov EAX, EBX
	mov EBX, DWORD PTR [ESP-32]
	mov EAX, EBX
	add ESP, 92
	popad
	pop ebp
	.cfi_restore 5
	.cfi_def_cfa 4, 4
	ret
	.cfi_endproc


	.ident "Error 404: Compiler Not Found"
	.def _malloc; .scl 2; .type 32; .endef
	.def _printf; .scl 2; .type 32; .endef
